---
triple:          'arm64-apple-darwin'
binary-path:     '/Users/simonvutov/Desktop/code/output/prob5'
relocations:
  - { offsetInCU: 0x7043, offset: 0x7043, size: 0x8, addend: 0x0, symName: __ZNSt3__117__floyd_sift_downB7v160006INS_17_ClassicAlgPolicyERNS_4lessINS_4pairINS3_IiiEES4_EEEENS_11__wrap_iterIPS5_EEEET1_SB_OT0_NS_15iterator_traitsISB_E15difference_typeE, symObjAddr: 0x5A5C, symBinAddr: 0x1000072A0, symSize: 0x148 }
  - { offsetInCU: 0x7FEC, offset: 0x7FEC, size: 0x8, addend: 0x0, symName: __ZNSt3__19make_pairB7v160006INS_4pairIiiEES2_EENS1_INS_18__unwrap_ref_decayIT_E4typeENS3_IT0_E4typeEEEOS4_OS7_, symObjAddr: 0xBD4, symBinAddr: 0x100002418, symSize: 0x38 }
  - { offsetInCU: 0x803B, offset: 0x803B, size: 0x8, addend: 0x0, symName: __ZNSt3__19make_pairB7v160006IRiS1_EENS_4pairINS_18__unwrap_ref_decayIT_E4typeENS3_IT0_E4typeEEEOS4_OS7_, symObjAddr: 0xC0C, symBinAddr: 0x100002450, symSize: 0x34 }
  - { offsetInCU: 0x808A, offset: 0x808A, size: 0x8, addend: 0x0, symName: __ZNSt3__19make_pairB7v160006IiiEENS_4pairINS_18__unwrap_ref_decayIT_E4typeENS2_IT0_E4typeEEEOS3_OS6_, symObjAddr: 0xC40, symBinAddr: 0x100002484, symSize: 0x34 }
  - { offsetInCU: 0x8D13, offset: 0x8D13, size: 0x8, addend: 0x0, symName: __ZNSt3__14endlB7v160006IcNS_11char_traitsIcEEEERNS_13basic_ostreamIT_T0_EES7_, symObjAddr: 0xD3C, symBinAddr: 0x100002580, symSize: 0x58 }
  - { offsetInCU: 0x8D53, offset: 0x8D53, size: 0x8, addend: 0x0, symName: __ZNSt3__19make_pairB7v160006IRiiEENS_4pairINS_18__unwrap_ref_decayIT_E4typeENS3_IT0_E4typeEEEOS4_OS7_, symObjAddr: 0xD94, symBinAddr: 0x1000025D8, symSize: 0x34 }
  - { offsetInCU: 0x8DA2, offset: 0x8DA2, size: 0x8, addend: 0x0, symName: __ZNSt3__118__debug_db_erase_cB7v160006INS_6vectorINS_4pairINS2_IiiEES3_EENS_9allocatorIS4_EEEEEEvPT_, symObjAddr: 0x105C, symBinAddr: 0x1000028A0, symSize: 0x10 }
  - { offsetInCU: 0x8DD3, offset: 0x8DD3, size: 0x8, addend: 0x0, symName: __ZNSt3__112__to_addressB7v160006INS_4pairINS1_IiiEES2_EEEEPT_S5_, symObjAddr: 0x11A0, symBinAddr: 0x1000029E4, symSize: 0x14 }
  - { offsetInCU: 0x8E08, offset: 0x8E08, size: 0x8, addend: 0x0, symName: __ZNSt3__130__libcpp_is_constant_evaluatedB7v160006Ev, symObjAddr: 0x1304, symBinAddr: 0x100002B48, symSize: 0xC }
  - { offsetInCU: 0x8E25, offset: 0x8E25, size: 0x8, addend: 0x0, symName: __ZNSt3__119__libcpp_deallocateB7v160006EPvmm, symObjAddr: 0x1310, symBinAddr: 0x100002B54, symSize: 0x30 }
  - { offsetInCU: 0x8E6D, offset: 0x8E6D, size: 0x8, addend: 0x0, symName: __ZNSt3__127__do_deallocate_handle_sizeB7v160006IJEEEvPvmDpT_, symObjAddr: 0x1340, symBinAddr: 0x100002B84, symSize: 0x28 }
  - { offsetInCU: 0x8EAB, offset: 0x8EAB, size: 0x8, addend: 0x0, symName: __ZNSt3__124__libcpp_operator_deleteB7v160006IJPvEEEvDpT_, symObjAddr: 0x1368, symBinAddr: 0x100002BAC, symSize: 0x24 }
  - { offsetInCU: 0x8EE0, offset: 0x8EE0, size: 0x8, addend: 0x0, symName: __ZNSt3__122__make_exception_guardB7v160006INS_6vectorIiNS_9allocatorIiEEE16__destroy_vectorEEENS_28__exception_guard_exceptionsIT_EES7_, symObjAddr: 0x1550, symBinAddr: 0x100002D94, symSize: 0x40 }
  - { offsetInCU: 0x8F15, offset: 0x8F15, size: 0x8, addend: 0x0, symName: __ZNSt3__119__debug_db_insert_cB7v160006INS_6vectorIiNS_9allocatorIiEEEEEEvPT_, symObjAddr: 0x15C4, symBinAddr: 0x100002E08, symSize: 0x10 }
  - { offsetInCU: 0x8F46, offset: 0x8F46, size: 0x8, addend: 0x0, symName: __ZNSt3__119__allocate_at_leastB7v160006INS_9allocatorIiEEEENS_19__allocation_resultINS_16allocator_traitsIT_E7pointerEEERS5_m, symObjAddr: 0x1970, symBinAddr: 0x1000031B4, symSize: 0x40 }
  - { offsetInCU: 0x8F89, offset: 0x8F89, size: 0x8, addend: 0x0, symName: __ZNSt3__13minB7v160006ImEERKT_S3_S3_, symObjAddr: 0x1AAC, symBinAddr: 0x1000032F0, symSize: 0x2C }
  - { offsetInCU: 0x91CD, offset: 0x91CD, size: 0x8, addend: 0x0, symName: __ZNSt3__13minB7v160006ImNS_6__lessImmEEEERKT_S5_S5_T0_, symObjAddr: 0x1B38, symBinAddr: 0x10000337C, symSize: 0x54 }
  - { offsetInCU: 0x9262, offset: 0x9262, size: 0x8, addend: 0x0, symName: __ZNSt3__120__throw_length_errorB7v160006EPKc, symObjAddr: 0x1C14, symBinAddr: 0x100003458, symSize: 0x64 }
  - { offsetInCU: 0x928A, offset: 0x928A, size: 0x8, addend: 0x0, symName: __ZNSt3__117__libcpp_allocateB7v160006Emm, symObjAddr: 0x1DB0, symBinAddr: 0x1000035F4, symSize: 0x28 }
  - { offsetInCU: 0x92C7, offset: 0x92C7, size: 0x8, addend: 0x0, symName: __ZNSt3__121__libcpp_operator_newB7v160006IJmEEEPvDpT_, symObjAddr: 0x1DD8, symBinAddr: 0x10000361C, symSize: 0x24 }
  - { offsetInCU: 0x9300, offset: 0x9300, size: 0x8, addend: 0x0, symName: __ZNSt3__112__to_addressB7v160006IiEEPT_S2_, symObjAddr: 0x1EF4, symBinAddr: 0x100003738, symSize: 0x14 }
  - { offsetInCU: 0x9335, offset: 0x9335, size: 0x8, addend: 0x0, symName: __ZNSt3__118__debug_db_erase_cB7v160006INS_6vectorIiNS_9allocatorIiEEEEEEvPT_, symObjAddr: 0x222C, symBinAddr: 0x100003A70, symSize: 0x10 }
  - { offsetInCU: 0x9366, offset: 0x9366, size: 0x8, addend: 0x0, symName: __ZNSt3__122__make_exception_guardB7v160006INS_6vectorINS1_IiNS_9allocatorIiEEEENS2_IS4_EEE16__destroy_vectorEEENS_28__exception_guard_exceptionsIT_EES9_, symObjAddr: 0x2578, symBinAddr: 0x100003DBC, symSize: 0x40 }
  - { offsetInCU: 0x939B, offset: 0x939B, size: 0x8, addend: 0x0, symName: __ZNSt3__119__debug_db_insert_cB7v160006INS_6vectorINS1_IiNS_9allocatorIiEEEENS2_IS4_EEEEEEvPT_, symObjAddr: 0x25EC, symBinAddr: 0x100003E30, symSize: 0x10 }
  - { offsetInCU: 0x93CC, offset: 0x93CC, size: 0x8, addend: 0x0, symName: __ZNSt3__119__allocate_at_leastB7v160006INS_9allocatorINS_6vectorIiNS1_IiEEEEEEEENS_19__allocation_resultINS_16allocator_traitsIT_E7pointerEEERS8_m, symObjAddr: 0x29A0, symBinAddr: 0x1000041E4, symSize: 0x40 }
  - { offsetInCU: 0x940F, offset: 0x940F, size: 0x8, addend: 0x0, symName: __ZNSt3__112__to_addressB7v160006INS_6vectorIiNS_9allocatorIiEEEEEEPT_S6_, symObjAddr: 0x2D18, symBinAddr: 0x10000455C, symSize: 0x14 }
  - { offsetInCU: 0x9444, offset: 0x9444, size: 0x8, addend: 0x0, symName: __ZNSt3__130__uninitialized_allocator_copyB7v160006INS_9allocatorIiEEPiS3_S3_EET2_RT_T0_T1_S4_, symObjAddr: 0x312C, symBinAddr: 0x100004970, symSize: 0xFC }
  - { offsetInCU: 0x94E2, offset: 0x94E2, size: 0x8, addend: 0x0, symName: __ZNSt3__122__make_exception_guardB7v160006INS_29_AllocatorDestroyRangeReverseINS_9allocatorIiEEPiEEEENS_28__exception_guard_exceptionsIT_EES7_, symObjAddr: 0x3228, symBinAddr: 0x100004A6C, symSize: 0x4C }
  - { offsetInCU: 0x9518, offset: 0x9518, size: 0x8, addend: 0x0, symName: __ZNSt3__119__allocator_destroyB7v160006INS_9allocatorIiEENS_16reverse_iteratorIPiEES5_EEvRT_T0_T1_, symObjAddr: 0x34A8, symBinAddr: 0x100004CEC, symSize: 0x70 }
  - { offsetInCU: 0x957B, offset: 0x957B, size: 0x8, addend: 0x0, symName: __ZNSt3__1neB7v160006IPiS1_EEbRKNS_16reverse_iteratorIT_EERKNS2_IT0_EE, symObjAddr: 0x354C, symBinAddr: 0x100004D90, symSize: 0x48 }
  - { offsetInCU: 0x95C7, offset: 0x95C7, size: 0x8, addend: 0x0, symName: __ZNSt3__112__to_addressB7v160006INS_16reverse_iteratorIPiEEvEENS_5decayIDTclsr19__to_address_helperIT_EE6__callclsr3stdE7declvalIRKS5_EEEEE4typeES7_, symObjAddr: 0x3594, symBinAddr: 0x100004DD8, symSize: 0x24 }
  - { offsetInCU: 0x9626, offset: 0x9626, size: 0x8, addend: 0x0, symName: __ZNSt3__118__debug_db_erase_cB7v160006INS_6vectorINS1_IiNS_9allocatorIiEEEENS2_IS4_EEEEEEvPT_, symObjAddr: 0x3888, symBinAddr: 0x1000050CC, symSize: 0x10 }
  - { offsetInCU: 0x9657, offset: 0x9657, size: 0x8, addend: 0x0, symName: __ZNSt3__119__debug_db_insert_cB7v160006INS_6vectorINS_4pairINS2_IiiEES3_EENS_9allocatorIS4_EEEEEEvPT_, symObjAddr: 0x3BA0, symBinAddr: 0x1000053E4, symSize: 0x10 }
  - { offsetInCU: 0x9688, offset: 0x9688, size: 0x8, addend: 0x0, symName: __ZNSt3__19push_heapB7v160006INS_11__wrap_iterIPNS_4pairINS2_IiiEES3_EEEENS_4lessIS4_EEEEvT_S9_T0_, symObjAddr: 0x3CE4, symBinAddr: 0x100005528, symSize: 0x40 }
  - { offsetInCU: 0x96DE, offset: 0x96DE, size: 0x8, addend: 0x0, symName: __ZNSt3__13maxB7v160006ImEERKT_S3_S3_, symObjAddr: 0x4350, symBinAddr: 0x100005B94, symSize: 0x2C }
  - { offsetInCU: 0x9721, offset: 0x9721, size: 0x8, addend: 0x0, symName: __ZNSt3__13maxB7v160006ImNS_6__lessImmEEEERKT_S5_S5_T0_, symObjAddr: 0x4414, symBinAddr: 0x100005C58, symSize: 0x54 }
  - { offsetInCU: 0x977B, offset: 0x977B, size: 0x8, addend: 0x0, symName: __ZNSt3__119__allocate_at_leastB7v160006INS_9allocatorINS_4pairINS2_IiiEES3_EEEEEENS_19__allocation_resultINS_16allocator_traitsIT_E7pointerEEERS8_m, symObjAddr: 0x4578, symBinAddr: 0x100005DBC, symSize: 0x40 }
  - { offsetInCU: 0x97BE, offset: 0x97BE, size: 0x8, addend: 0x0, symName: __ZNSt3__142__uninitialized_allocator_move_if_noexceptB7v160006INS_9allocatorINS_4pairINS2_IiiEES3_EEEENS_16reverse_iteratorIPS4_EES8_S8_EET2_RT_T0_T1_S9_, symObjAddr: 0x4758, symBinAddr: 0x100005F9C, symSize: 0x134 }
  - { offsetInCU: 0x985E, offset: 0x985E, size: 0x8, addend: 0x0, symName: __ZNSt3__14swapB7v160006IPNS_4pairINS1_IiiEES2_EEEEvRT_S6_, symObjAddr: 0x48D8, symBinAddr: 0x10000611C, symSize: 0x3C }
  - { offsetInCU: 0x98AF, offset: 0x98AF, size: 0x8, addend: 0x0, symName: __ZNSt3__125__debug_db_invalidate_allB7v160006INS_6vectorINS_4pairINS2_IiiEES3_EENS_9allocatorIS4_EEEEEEvPT_, symObjAddr: 0x49C0, symBinAddr: 0x100006204, symSize: 0x10 }
  - { offsetInCU: 0x98E0, offset: 0x98E0, size: 0x8, addend: 0x0, symName: __ZNSt3__122__make_exception_guardB7v160006INS_29_AllocatorDestroyRangeReverseINS_9allocatorINS_4pairINS3_IiiEES4_EEEENS_16reverse_iteratorIPS5_EEEEEENS_28__exception_guard_exceptionsIT_EESC_, symObjAddr: 0x49D0, symBinAddr: 0x100006214, symSize: 0x4C }
  - { offsetInCU: 0x9916, offset: 0x9916, size: 0x8, addend: 0x0, symName: __ZNSt3__1neB7v160006IPNS_4pairINS1_IiiEES2_EES4_EEbRKNS_16reverse_iteratorIT_EERKNS5_IT0_EE, symObjAddr: 0x4A60, symBinAddr: 0x1000062A4, symSize: 0x48 }
  - { offsetInCU: 0x9962, offset: 0x9962, size: 0x8, addend: 0x0, symName: __ZNSt3__112__to_addressB7v160006INS_16reverse_iteratorIPNS_4pairINS2_IiiEES3_EEEEvEENS_5decayIDTclsr19__to_address_helperIT_EE6__callclsr3stdE7declvalIRKS8_EEEEE4typeESA_, symObjAddr: 0x4ADC, symBinAddr: 0x100006320, symSize: 0x24 }
  - { offsetInCU: 0x99C1, offset: 0x99C1, size: 0x8, addend: 0x0, symName: __ZNSt3__119__allocator_destroyB7v160006INS_9allocatorINS_4pairINS2_IiiEES3_EEEENS_16reverse_iteratorINS6_IPS4_EEEES9_EEvRT_T0_T1_, symObjAddr: 0x4DC0, symBinAddr: 0x100006604, symSize: 0x70 }
  - { offsetInCU: 0x9A26, offset: 0x9A26, size: 0x8, addend: 0x0, symName: __ZNSt3__1neB7v160006INS_16reverse_iteratorIPNS_4pairINS2_IiiEES3_EEEES6_EEbRKNS1_IT_EERKNS1_IT0_EE, symObjAddr: 0x4E6C, symBinAddr: 0x1000066B0, symSize: 0x60 }
  - { offsetInCU: 0x9A72, offset: 0x9A72, size: 0x8, addend: 0x0, symName: __ZNSt3__112__to_addressB7v160006INS_16reverse_iteratorINS1_IPNS_4pairINS2_IiiEES3_EEEEEEvEENS_5decayIDTclsr19__to_address_helperIT_EE6__callclsr3stdE7declvalIRKS9_EEEEE4typeESB_, symObjAddr: 0x4ECC, symBinAddr: 0x100006710, symSize: 0x24 }
  - { offsetInCU: 0x9AD1, offset: 0x9AD1, size: 0x8, addend: 0x0, symName: __ZNSt3__111__push_heapB7v160006INS_17_ClassicAlgPolicyENS_11__wrap_iterIPNS_4pairINS3_IiiEES4_EEEENS_4lessIS5_EEEEvT0_SA_RT1_, symObjAddr: 0x5250, symBinAddr: 0x100006A94, symSize: 0x5C }
  - { offsetInCU: 0x9B3E, offset: 0x9B3E, size: 0x8, addend: 0x0, symName: __ZNSt3__1miB7v160006IPNS_4pairINS1_IiiEES2_EES4_EENS_11__wrap_iterIT_E15difference_typeERKS7_RKNS5_IT0_EE, symObjAddr: 0x52AC, symBinAddr: 0x100006AF0, symSize: 0x48 }
  - { offsetInCU: 0x9B8A, offset: 0x9B8A, size: 0x8, addend: 0x0, symName: __ZNSt3__19__sift_upB7v160006INS_17_ClassicAlgPolicyERNS_4lessINS_4pairINS3_IiiEES4_EEEENS_11__wrap_iterIPS5_EEEEvT1_SB_OT0_NS_15iterator_traitsISB_E15difference_typeE, symObjAddr: 0x52F4, symBinAddr: 0x100006B38, symSize: 0x15C }
  - { offsetInCU: 0x9CAD, offset: 0x9CAD, size: 0x8, addend: 0x0, symName: __ZNSt3__1ltB7v160006INS_4pairIiiEES2_EEbRKNS1_IT_T0_EES7_, symObjAddr: 0x55A8, symBinAddr: 0x100006DEC, symSize: 0x88 }
  - { offsetInCU: 0x9CFC, offset: 0x9CFC, size: 0x8, addend: 0x0, symName: __ZNSt3__1ltB7v160006IiiEEbRKNS_4pairIT_T0_EES6_, symObjAddr: 0x5630, symBinAddr: 0x100006E74, symSize: 0x98 }
  - { offsetInCU: 0x9D4B, offset: 0x9D4B, size: 0x8, addend: 0x0, symName: __ZNSt3__18pop_heapB7v160006INS_11__wrap_iterIPNS_4pairINS2_IiiEES3_EEEENS_4lessIS4_EEEEvT_S9_T0_, symObjAddr: 0x58B0, symBinAddr: 0x1000070F4, symSize: 0x58 }
  - { offsetInCU: 0x9DAF, offset: 0x9DAF, size: 0x8, addend: 0x0, symName: __ZNSt3__110__pop_heapB7v160006INS_17_ClassicAlgPolicyENS_4lessINS_4pairINS3_IiiEES4_EEEENS_11__wrap_iterIPS5_EEEEvT1_SA_RT0_NS_15iterator_traitsISA_E15difference_typeE, symObjAddr: 0x5934, symBinAddr: 0x100007178, symSize: 0x128 }
  - { offsetInCU: 0x9E60, offset: 0x9E60, size: 0x8, addend: 0x0, symName: __ZNSt3__1eqB7v160006IPNS_4pairINS1_IiiEES2_EEEEbRKNS_11__wrap_iterIT_EES9_, symObjAddr: 0x5BA4, symBinAddr: 0x1000073E8, symSize: 0x48 }
  - { offsetInCU: 0x9EA3, offset: 0x9EA3, size: 0x8, addend: 0x0, symName: __ZNSt3__19use_facetB7v160006INS_5ctypeIcEEEERKT_RKNS_6localeE, symObjAddr: 0x5DE8, symBinAddr: 0x10000762C, symSize: 0x2C }
  - { offsetInCU: 0xA596, offset: 0xA596, size: 0x8, addend: 0x0, symName: __ZSt28__throw_bad_array_new_lengthB7v160006v, symObjAddr: 0x1D7C, symBinAddr: 0x1000035C0, symSize: 0x34 }
  - { offsetInCU: 0xACA3, offset: 0xACA3, size: 0x8, addend: 0x0, symName: __ZNSt3__16vectorINS_4pairINS1_IiiEES2_EENS_9allocatorIS3_EEE26__swap_out_circular_bufferERNS_14__split_bufferIS3_RS5_EE, symObjAddr: 0x417C, symBinAddr: 0x1000059C0, symSize: 0x118 }
  - { offsetInCU: 0xCEB4, offset: 0xCEB4, size: 0x8, addend: 0x0, symName: _main, symObjAddr: 0x0, symBinAddr: 0x100001844, symSize: 0xA50 }
  - { offsetInCU: 0xCFC9, offset: 0xCFC9, size: 0x8, addend: 0x0, symName: __ZNSt3__16vectorIiNS_9allocatorIiEEEC1EmRKi, symObjAddr: 0xA50, symBinAddr: 0x100002294, symSize: 0x3C }
  - { offsetInCU: 0xD012, offset: 0xD012, size: 0x8, addend: 0x0, symName: __ZNSt3__16vectorIiNS_9allocatorIiEEEixB7v160006Em, symObjAddr: 0xA8C, symBinAddr: 0x1000022D0, symSize: 0x24 }
  - { offsetInCU: 0xD048, offset: 0xD048, size: 0x8, addend: 0x0, symName: __ZNSt3__16vectorINS0_IiNS_9allocatorIiEEEENS1_IS3_EEEC1EmRKS3_, symObjAddr: 0xAB0, symBinAddr: 0x1000022F4, symSize: 0x3C }
  - { offsetInCU: 0xD091, offset: 0xD091, size: 0x8, addend: 0x0, symName: __ZNSt3__16vectorIiNS_9allocatorIiEEED1B7v160006Ev, symObjAddr: 0xAEC, symBinAddr: 0x100002330, symSize: 0x2C }
  - { offsetInCU: 0xD0BA, offset: 0xD0BA, size: 0x8, addend: 0x0, symName: __ZNSt3__16vectorINS0_IiNS_9allocatorIiEEEENS1_IS3_EEEixB7v160006Em, symObjAddr: 0xB24, symBinAddr: 0x100002368, symSize: 0x2C }
  - { offsetInCU: 0xD131, offset: 0xD131, size: 0x8, addend: 0x0, symName: __ZNSt3__114priority_queueINS_4pairINS1_IiiEES2_EENS_6vectorIS3_NS_9allocatorIS3_EEEENS_4lessIS3_EEEC1B7v160006Ev, symObjAddr: 0xB50, symBinAddr: 0x100002394, symSize: 0x2C }
  - { offsetInCU: 0xD159, offset: 0xD159, size: 0x8, addend: 0x0, symName: __ZNSt3__114priority_queueINS_4pairINS1_IiiEES2_EENS_6vectorIS3_NS_9allocatorIS3_EEEENS_4lessIS3_EEE4pushERKS3_, symObjAddr: 0xB7C, symBinAddr: 0x1000023C0, symSize: 0x58 }
  - { offsetInCU: 0xD18F, offset: 0xD18F, size: 0x8, addend: 0x0, symName: __ZNKSt3__114priority_queueINS_4pairINS1_IiiEES2_EENS_6vectorIS3_NS_9allocatorIS3_EEEENS_4lessIS3_EEE5emptyB7v160006Ev, symObjAddr: 0xC74, symBinAddr: 0x1000024B8, symSize: 0x28 }
  - { offsetInCU: 0xD1B4, offset: 0xD1B4, size: 0x8, addend: 0x0, symName: __ZNKSt3__114priority_queueINS_4pairINS1_IiiEES2_EENS_6vectorIS3_NS_9allocatorIS3_EEEENS_4lessIS3_EEE3topB7v160006Ev, symObjAddr: 0xC9C, symBinAddr: 0x1000024E0, symSize: 0x24 }
  - { offsetInCU: 0xD1D8, offset: 0xD1D8, size: 0x8, addend: 0x0, symName: __ZNSt3__114priority_queueINS_4pairINS1_IiiEES2_EENS_6vectorIS3_NS_9allocatorIS3_EEEENS_4lessIS3_EEE3popEv, symObjAddr: 0xCC0, symBinAddr: 0x100002504, symSize: 0x50 }
  - { offsetInCU: 0xD2AF, offset: 0xD2AF, size: 0x8, addend: 0x0, symName: __ZNSt3__113basic_ostreamIcNS_11char_traitsIcEEElsB7v160006EPFRS3_S4_E, symObjAddr: 0xD10, symBinAddr: 0x100002554, symSize: 0x2C }
  - { offsetInCU: 0xD2E2, offset: 0xD2E2, size: 0x8, addend: 0x0, symName: __ZNSt3__114priority_queueINS_4pairINS1_IiiEES2_EENS_6vectorIS3_NS_9allocatorIS3_EEEENS_4lessIS3_EEED1Ev, symObjAddr: 0xDC8, symBinAddr: 0x10000260C, symSize: 0x2C }
  - { offsetInCU: 0xD30E, offset: 0xD30E, size: 0x8, addend: 0x0, symName: __ZNSt3__16vectorINS0_IiNS_9allocatorIiEEEENS1_IS3_EEED1B7v160006Ev, symObjAddr: 0xDF4, symBinAddr: 0x100002638, symSize: 0x2C }
  - { offsetInCU: 0xD337, offset: 0xD337, size: 0x8, addend: 0x0, symName: __ZNSt3__114priority_queueINS_4pairINS1_IiiEES2_EENS_6vectorIS3_NS_9allocatorIS3_EEEENS_4lessIS3_EEED2Ev, symObjAddr: 0xE20, symBinAddr: 0x100002664, symSize: 0x2C }
  - { offsetInCU: 0xD363, offset: 0xD363, size: 0x8, addend: 0x0, symName: __ZNSt3__16vectorINS_4pairINS1_IiiEES2_EENS_9allocatorIS3_EEED1B7v160006Ev, symObjAddr: 0xE4C, symBinAddr: 0x100002690, symSize: 0x2C }
  - { offsetInCU: 0xD38C, offset: 0xD38C, size: 0x8, addend: 0x0, symName: __ZNSt3__16vectorINS_4pairINS1_IiiEES2_EENS_9allocatorIS3_EEED2B7v160006Ev, symObjAddr: 0xE78, symBinAddr: 0x1000026BC, symSize: 0x3C }
  - { offsetInCU: 0xD3B5, offset: 0xD3B5, size: 0x8, addend: 0x0, symName: __ZNSt3__16vectorINS_4pairINS1_IiiEES2_EENS_9allocatorIS3_EEE16__destroy_vectorC1ERS6_, symObjAddr: 0xEB4, symBinAddr: 0x1000026F8, symSize: 0x34 }
  - { offsetInCU: 0xD3ED, offset: 0xD3ED, size: 0x8, addend: 0x0, symName: __ZNSt3__16vectorINS_4pairINS1_IiiEES2_EENS_9allocatorIS3_EEE16__destroy_vectorclB7v160006Ev, symObjAddr: 0xEE8, symBinAddr: 0x10000272C, symSize: 0x9C }
  - { offsetInCU: 0xD412, offset: 0xD412, size: 0x8, addend: 0x0, symName: __ZNSt3__16vectorINS_4pairINS1_IiiEES2_EENS_9allocatorIS3_EEE16__destroy_vectorC2ERS6_, symObjAddr: 0xF84, symBinAddr: 0x1000027C8, symSize: 0x20 }
  - { offsetInCU: 0xD44A, offset: 0xD44A, size: 0x8, addend: 0x0, symName: __ZNKSt3__16vectorINS_4pairINS1_IiiEES2_EENS_9allocatorIS3_EEE17__annotate_deleteB7v160006Ev, symObjAddr: 0xFA4, symBinAddr: 0x1000027E8, symSize: 0xB8 }
  - { offsetInCU: 0xD46F, offset: 0xD46F, size: 0x8, addend: 0x0, symName: __ZNSt3__16vectorINS_4pairINS1_IiiEES2_EENS_9allocatorIS3_EEE7__clearB7v160006Ev, symObjAddr: 0x106C, symBinAddr: 0x1000028B0, symSize: 0x28 }
  - { offsetInCU: 0xD494, offset: 0xD494, size: 0x8, addend: 0x0, symName: __ZNSt3__116allocator_traitsINS_9allocatorINS_4pairINS2_IiiEES3_EEEEE10deallocateB7v160006ERS5_PS4_m, symObjAddr: 0x1094, symBinAddr: 0x1000028D8, symSize: 0x34 }
  - { offsetInCU: 0xD4D6, offset: 0xD4D6, size: 0x8, addend: 0x0, symName: __ZNSt3__16vectorINS_4pairINS1_IiiEES2_EENS_9allocatorIS3_EEE7__allocB7v160006Ev, symObjAddr: 0x10C8, symBinAddr: 0x10000290C, symSize: 0x28 }
  - { offsetInCU: 0xD4FB, offset: 0xD4FB, size: 0x8, addend: 0x0, symName: __ZNKSt3__16vectorINS_4pairINS1_IiiEES2_EENS_9allocatorIS3_EEE8capacityB7v160006Ev, symObjAddr: 0x10F0, symBinAddr: 0x100002934, symSize: 0x40 }
  - { offsetInCU: 0xD520, offset: 0xD520, size: 0x8, addend: 0x0, symName: __ZNKSt3__16vectorINS_4pairINS1_IiiEES2_EENS_9allocatorIS3_EEE31__annotate_contiguous_containerB7v160006EPKvS8_S8_S8_, symObjAddr: 0x1130, symBinAddr: 0x100002974, symSize: 0x20 }
  - { offsetInCU: 0xD575, offset: 0xD575, size: 0x8, addend: 0x0, symName: __ZNKSt3__16vectorINS_4pairINS1_IiiEES2_EENS_9allocatorIS3_EEE4dataB7v160006Ev, symObjAddr: 0x1150, symBinAddr: 0x100002994, symSize: 0x28 }
  - { offsetInCU: 0xD59A, offset: 0xD59A, size: 0x8, addend: 0x0, symName: __ZNKSt3__16vectorINS_4pairINS1_IiiEES2_EENS_9allocatorIS3_EEE4sizeB7v160006Ev, symObjAddr: 0x1178, symBinAddr: 0x1000029BC, symSize: 0x28 }
  - { offsetInCU: 0xD5BF, offset: 0xD5BF, size: 0x8, addend: 0x0, symName: __ZNSt3__16vectorINS_4pairINS1_IiiEES2_EENS_9allocatorIS3_EEE22__base_destruct_at_endB7v160006EPS3_, symObjAddr: 0x11B4, symBinAddr: 0x1000029F8, symSize: 0xA0 }
  - { offsetInCU: 0xD602, offset: 0xD602, size: 0x8, addend: 0x0, symName: __ZNSt3__116allocator_traitsINS_9allocatorINS_4pairINS2_IiiEES3_EEEEE7destroyB7v160006IS4_vEEvRS5_PT_, symObjAddr: 0x1254, symBinAddr: 0x100002A98, symSize: 0x2C }
  - { offsetInCU: 0xD63F, offset: 0xD63F, size: 0x8, addend: 0x0, symName: __ZNSt3__19allocatorINS_4pairINS1_IiiEES2_EEE7destroyB7v160006EPS3_, symObjAddr: 0x1280, symBinAddr: 0x100002AC4, symSize: 0x14 }
  - { offsetInCU: 0xD672, offset: 0xD672, size: 0x8, addend: 0x0, symName: __ZNSt3__19allocatorINS_4pairINS1_IiiEES2_EEE10deallocateB7v160006EPS3_m, symObjAddr: 0x1294, symBinAddr: 0x100002AD8, symSize: 0x70 }
  - { offsetInCU: 0xD6B3, offset: 0xD6B3, size: 0x8, addend: 0x0, symName: __ZNSt3__117__compressed_pairIPNS_4pairINS1_IiiEES2_EENS_9allocatorIS3_EEE6secondB7v160006Ev, symObjAddr: 0x138C, symBinAddr: 0x100002BD0, symSize: 0x24 }
  - { offsetInCU: 0xD6D8, offset: 0xD6D8, size: 0x8, addend: 0x0, symName: __ZNSt3__122__compressed_pair_elemINS_9allocatorINS_4pairINS2_IiiEES3_EEEELi1ELb1EE5__getB7v160006Ev, symObjAddr: 0x13B0, symBinAddr: 0x100002BF4, symSize: 0x14 }
  - { offsetInCU: 0xD6FD, offset: 0xD6FD, size: 0x8, addend: 0x0, symName: __ZNKSt3__16vectorINS_4pairINS1_IiiEES2_EENS_9allocatorIS3_EEE9__end_capB7v160006Ev, symObjAddr: 0x13C4, symBinAddr: 0x100002C08, symSize: 0x28 }
  - { offsetInCU: 0xD722, offset: 0xD722, size: 0x8, addend: 0x0, symName: __ZNKSt3__117__compressed_pairIPNS_4pairINS1_IiiEES2_EENS_9allocatorIS3_EEE5firstB7v160006Ev, symObjAddr: 0x13EC, symBinAddr: 0x100002C30, symSize: 0x24 }
  - { offsetInCU: 0xD747, offset: 0xD747, size: 0x8, addend: 0x0, symName: __ZNKSt3__122__compressed_pair_elemIPNS_4pairINS1_IiiEES2_EELi0ELb0EE5__getB7v160006Ev, symObjAddr: 0x1410, symBinAddr: 0x100002C54, symSize: 0x14 }
  - { offsetInCU: 0xD76C, offset: 0xD76C, size: 0x8, addend: 0x0, symName: __ZNSt3__16vectorIiNS_9allocatorIiEEEC2EmRKi, symObjAddr: 0x1424, symBinAddr: 0x100002C68, symSize: 0xF0 }
  - { offsetInCU: 0xD7D5, offset: 0xD7D5, size: 0x8, addend: 0x0, symName: __ZNSt3__117__compressed_pairIPiNS_9allocatorIiEEEC1B7v160006IDnNS_18__default_init_tagEEEOT_OT0_, symObjAddr: 0x1514, symBinAddr: 0x100002D58, symSize: 0x3C }
  - { offsetInCU: 0xD82C, offset: 0xD82C, size: 0x8, addend: 0x0, symName: __ZNSt3__16vectorIiNS_9allocatorIiEEE16__destroy_vectorC1ERS3_, symObjAddr: 0x1590, symBinAddr: 0x100002DD4, symSize: 0x34 }
  - { offsetInCU: 0xD864, offset: 0xD864, size: 0x8, addend: 0x0, symName: __ZNSt3__16vectorIiNS_9allocatorIiEEE11__vallocateB7v160006Em, symObjAddr: 0x15D4, symBinAddr: 0x100002E18, symSize: 0xAC }
  - { offsetInCU: 0xD8A6, offset: 0xD8A6, size: 0x8, addend: 0x0, symName: __ZNSt3__16vectorIiNS_9allocatorIiEEE18__construct_at_endEmRKi, symObjAddr: 0x1680, symBinAddr: 0x100002EC4, symSize: 0xD8 }
  - { offsetInCU: 0xD926, offset: 0xD926, size: 0x8, addend: 0x0, symName: __ZNSt3__128__exception_guard_exceptionsINS_6vectorIiNS_9allocatorIiEEE16__destroy_vectorEE10__completeB7v160006Ev, symObjAddr: 0x1758, symBinAddr: 0x100002F9C, symSize: 0x1C }
  - { offsetInCU: 0xD94B, offset: 0xD94B, size: 0x8, addend: 0x0, symName: __ZNSt3__128__exception_guard_exceptionsINS_6vectorIiNS_9allocatorIiEEE16__destroy_vectorEED1B7v160006Ev, symObjAddr: 0x1774, symBinAddr: 0x100002FB8, symSize: 0x2C }
  - { offsetInCU: 0xD974, offset: 0xD974, size: 0x8, addend: 0x0, symName: __ZNSt3__117__compressed_pairIPiNS_9allocatorIiEEEC2B7v160006IDnNS_18__default_init_tagEEEOT_OT0_, symObjAddr: 0x17A0, symBinAddr: 0x100002FE4, symSize: 0x40 }
  - { offsetInCU: 0xD9CB, offset: 0xD9CB, size: 0x8, addend: 0x0, symName: __ZNSt3__122__compressed_pair_elemIPiLi0ELb0EEC2B7v160006IDnvEEOT_, symObjAddr: 0x17E0, symBinAddr: 0x100003024, symSize: 0x1C }
  - { offsetInCU: 0xDA0C, offset: 0xDA0C, size: 0x8, addend: 0x0, symName: __ZNSt3__122__compressed_pair_elemINS_9allocatorIiEELi1ELb1EEC2B7v160006ENS_18__default_init_tagE, symObjAddr: 0x17FC, symBinAddr: 0x100003040, symSize: 0x2C }
  - { offsetInCU: 0xDA40, offset: 0xDA40, size: 0x8, addend: 0x0, symName: __ZNSt3__19allocatorIiEC2B7v160006Ev, symObjAddr: 0x1828, symBinAddr: 0x10000306C, symSize: 0x2C }
  - { offsetInCU: 0xDA69, offset: 0xDA69, size: 0x8, addend: 0x0, symName: __ZNSt3__116__non_trivial_ifILb1ENS_9allocatorIiEEEC2B7v160006Ev, symObjAddr: 0x1854, symBinAddr: 0x100003098, symSize: 0x14 }
  - { offsetInCU: 0xDA92, offset: 0xDA92, size: 0x8, addend: 0x0, symName: __ZNSt3__128__exception_guard_exceptionsINS_6vectorIiNS_9allocatorIiEEE16__destroy_vectorEEC1B7v160006ES5_, symObjAddr: 0x1868, symBinAddr: 0x1000030AC, symSize: 0x34 }
  - { offsetInCU: 0xDAC9, offset: 0xDAC9, size: 0x8, addend: 0x0, symName: __ZNSt3__128__exception_guard_exceptionsINS_6vectorIiNS_9allocatorIiEEE16__destroy_vectorEEC2B7v160006ES5_, symObjAddr: 0x189C, symBinAddr: 0x1000030E0, symSize: 0x24 }
  - { offsetInCU: 0xDB00, offset: 0xDB00, size: 0x8, addend: 0x0, symName: __ZNSt3__16vectorIiNS_9allocatorIiEEE16__destroy_vectorC2ERS3_, symObjAddr: 0x18C0, symBinAddr: 0x100003104, symSize: 0x20 }
  - { offsetInCU: 0xDB37, offset: 0xDB37, size: 0x8, addend: 0x0, symName: __ZNKSt3__16vectorIiNS_9allocatorIiEEE8max_sizeEv, symObjAddr: 0x18E0, symBinAddr: 0x100003124, symSize: 0x74 }
  - { offsetInCU: 0xDB5E, offset: 0xDB5E, size: 0x8, addend: 0x0, symName: __ZNKSt3__16vectorIiNS_9allocatorIiEEE20__throw_length_errorB7v160006Ev, symObjAddr: 0x1954, symBinAddr: 0x100003198, symSize: 0x1C }
  - { offsetInCU: 0xDB83, offset: 0xDB83, size: 0x8, addend: 0x0, symName: __ZNSt3__16vectorIiNS_9allocatorIiEEE7__allocB7v160006Ev, symObjAddr: 0x19B0, symBinAddr: 0x1000031F4, symSize: 0x28 }
  - { offsetInCU: 0xDBA8, offset: 0xDBA8, size: 0x8, addend: 0x0, symName: __ZNSt3__16vectorIiNS_9allocatorIiEEE9__end_capB7v160006Ev, symObjAddr: 0x19D8, symBinAddr: 0x10000321C, symSize: 0x28 }
  - { offsetInCU: 0xDBCD, offset: 0xDBCD, size: 0x8, addend: 0x0, symName: __ZNKSt3__16vectorIiNS_9allocatorIiEEE14__annotate_newB7v160006Em, symObjAddr: 0x1A00, symBinAddr: 0x100003244, symSize: 0xAC }
  - { offsetInCU: 0xDC0B, offset: 0xDC0B, size: 0x8, addend: 0x0, symName: __ZNSt3__116allocator_traitsINS_9allocatorIiEEE8max_sizeB7v160006IS2_vEEmRKS2_, symObjAddr: 0x1AD8, symBinAddr: 0x10000331C, symSize: 0x24 }
  - { offsetInCU: 0xDC39, offset: 0xDC39, size: 0x8, addend: 0x0, symName: __ZNKSt3__16vectorIiNS_9allocatorIiEEE7__allocB7v160006Ev, symObjAddr: 0x1AFC, symBinAddr: 0x100003340, symSize: 0x28 }
  - { offsetInCU: 0xDC5E, offset: 0xDC5E, size: 0x8, addend: 0x0, symName: __ZNSt3__114numeric_limitsIlE3maxB7v160006Ev, symObjAddr: 0x1B24, symBinAddr: 0x100003368, symSize: 0x14 }
  - { offsetInCU: 0xDC86, offset: 0xDC86, size: 0x8, addend: 0x0, symName: __ZNKSt3__16__lessImmEclB7v160006ERKmS3_, symObjAddr: 0x1B8C, symBinAddr: 0x1000033D0, symSize: 0x34 }
  - { offsetInCU: 0xDCC7, offset: 0xDCC7, size: 0x8, addend: 0x0, symName: __ZNKSt3__19allocatorIiE8max_sizeB7v160006Ev, symObjAddr: 0x1BC0, symBinAddr: 0x100003404, symSize: 0x14 }
  - { offsetInCU: 0xDCEC, offset: 0xDCEC, size: 0x8, addend: 0x0, symName: __ZNKSt3__117__compressed_pairIPiNS_9allocatorIiEEE6secondB7v160006Ev, symObjAddr: 0x1BD4, symBinAddr: 0x100003418, symSize: 0x24 }
  - { offsetInCU: 0xDD11, offset: 0xDD11, size: 0x8, addend: 0x0, symName: __ZNKSt3__122__compressed_pair_elemINS_9allocatorIiEELi1ELb1EE5__getB7v160006Ev, symObjAddr: 0x1BF8, symBinAddr: 0x10000343C, symSize: 0x14 }
  - { offsetInCU: 0xDD36, offset: 0xDD36, size: 0x8, addend: 0x0, symName: __ZNSt3__123__libcpp_numeric_limitsIlLb1EE3maxB7v160006Ev, symObjAddr: 0x1C0C, symBinAddr: 0x100003450, symSize: 0x8 }
  - { offsetInCU: 0xDD4A, offset: 0xDD4A, size: 0x8, addend: 0x0, symName: __ZNSt12length_errorC1B7v160006EPKc, symObjAddr: 0x1C78, symBinAddr: 0x1000034BC, symSize: 0x34 }
  - { offsetInCU: 0xDD81, offset: 0xDD81, size: 0x8, addend: 0x0, symName: __ZNSt12length_errorC2B7v160006EPKc, symObjAddr: 0x1CAC, symBinAddr: 0x1000034F0, symSize: 0x4C }
  - { offsetInCU: 0xDDB8, offset: 0xDDB8, size: 0x8, addend: 0x0, symName: __ZNSt3__19allocatorIiE8allocateB7v160006Em, symObjAddr: 0x1CF8, symBinAddr: 0x10000353C, symSize: 0x84 }
  - { offsetInCU: 0xDDEB, offset: 0xDDEB, size: 0x8, addend: 0x0, symName: __ZNSt3__117__compressed_pairIPiNS_9allocatorIiEEE6secondB7v160006Ev, symObjAddr: 0x1DFC, symBinAddr: 0x100003640, symSize: 0x24 }
  - { offsetInCU: 0xDE10, offset: 0xDE10, size: 0x8, addend: 0x0, symName: __ZNSt3__122__compressed_pair_elemINS_9allocatorIiEELi1ELb1EE5__getB7v160006Ev, symObjAddr: 0x1E20, symBinAddr: 0x100003664, symSize: 0x14 }
  - { offsetInCU: 0xDE35, offset: 0xDE35, size: 0x8, addend: 0x0, symName: __ZNSt3__117__compressed_pairIPiNS_9allocatorIiEEE5firstB7v160006Ev, symObjAddr: 0x1E34, symBinAddr: 0x100003678, symSize: 0x24 }
  - { offsetInCU: 0xDE5A, offset: 0xDE5A, size: 0x8, addend: 0x0, symName: __ZNSt3__122__compressed_pair_elemIPiLi0ELb0EE5__getB7v160006Ev, symObjAddr: 0x1E58, symBinAddr: 0x10000369C, symSize: 0x14 }
  - { offsetInCU: 0xDE7F, offset: 0xDE7F, size: 0x8, addend: 0x0, symName: __ZNKSt3__16vectorIiNS_9allocatorIiEEE31__annotate_contiguous_containerB7v160006EPKvS5_S5_S5_, symObjAddr: 0x1E6C, symBinAddr: 0x1000036B0, symSize: 0x20 }
  - { offsetInCU: 0xDED4, offset: 0xDED4, size: 0x8, addend: 0x0, symName: __ZNKSt3__16vectorIiNS_9allocatorIiEEE4dataB7v160006Ev, symObjAddr: 0x1E8C, symBinAddr: 0x1000036D0, symSize: 0x28 }
  - { offsetInCU: 0xDEF9, offset: 0xDEF9, size: 0x8, addend: 0x0, symName: __ZNKSt3__16vectorIiNS_9allocatorIiEEE8capacityB7v160006Ev, symObjAddr: 0x1EB4, symBinAddr: 0x1000036F8, symSize: 0x40 }
  - { offsetInCU: 0xDF1E, offset: 0xDF1E, size: 0x8, addend: 0x0, symName: __ZNKSt3__16vectorIiNS_9allocatorIiEEE9__end_capB7v160006Ev, symObjAddr: 0x1F08, symBinAddr: 0x10000374C, symSize: 0x28 }
  - { offsetInCU: 0xDF43, offset: 0xDF43, size: 0x8, addend: 0x0, symName: __ZNKSt3__117__compressed_pairIPiNS_9allocatorIiEEE5firstB7v160006Ev, symObjAddr: 0x1F30, symBinAddr: 0x100003774, symSize: 0x24 }
  - { offsetInCU: 0xDF68, offset: 0xDF68, size: 0x8, addend: 0x0, symName: __ZNKSt3__122__compressed_pair_elemIPiLi0ELb0EE5__getB7v160006Ev, symObjAddr: 0x1F54, symBinAddr: 0x100003798, symSize: 0x14 }
  - { offsetInCU: 0xDFA6, offset: 0xDFA6, size: 0x8, addend: 0x0, symName: __ZNSt3__16vectorIiNS_9allocatorIiEEE21_ConstructTransactionC1B7v160006ERS3_m, symObjAddr: 0x1F68, symBinAddr: 0x1000037AC, symSize: 0x3C }
  - { offsetInCU: 0xDFED, offset: 0xDFED, size: 0x8, addend: 0x0, symName: __ZNSt3__116allocator_traitsINS_9allocatorIiEEE9constructB7v160006IiJRKiEvEEvRS2_PT_DpOT0_, symObjAddr: 0x1FA4, symBinAddr: 0x1000037E8, symSize: 0x34 }
  - { offsetInCU: 0xE044, offset: 0xE044, size: 0x8, addend: 0x0, symName: __ZNSt3__16vectorIiNS_9allocatorIiEEE21_ConstructTransactionD1B7v160006Ev, symObjAddr: 0x1FD8, symBinAddr: 0x10000381C, symSize: 0x2C }
  - { offsetInCU: 0xE06D, offset: 0xE06D, size: 0x8, addend: 0x0, symName: __ZNSt3__16vectorIiNS_9allocatorIiEEE21_ConstructTransactionC2B7v160006ERS3_m, symObjAddr: 0x2004, symBinAddr: 0x100003848, symSize: 0x44 }
  - { offsetInCU: 0xE0B4, offset: 0xE0B4, size: 0x8, addend: 0x0, symName: __ZNSt3__19allocatorIiE9constructB7v160006IiJRKiEEEvPT_DpOT0_, symObjAddr: 0x2048, symBinAddr: 0x10000388C, symSize: 0x28 }
  - { offsetInCU: 0xE109, offset: 0xE109, size: 0x8, addend: 0x0, symName: __ZNSt3__16vectorIiNS_9allocatorIiEEE21_ConstructTransactionD2B7v160006Ev, symObjAddr: 0x2070, symBinAddr: 0x1000038B4, symSize: 0x20 }
  - { offsetInCU: 0xE132, offset: 0xE132, size: 0x8, addend: 0x0, symName: __ZNSt3__128__exception_guard_exceptionsINS_6vectorIiNS_9allocatorIiEEE16__destroy_vectorEED2B7v160006Ev, symObjAddr: 0x2090, symBinAddr: 0x1000038D4, symSize: 0x48 }
  - { offsetInCU: 0xE15B, offset: 0xE15B, size: 0x8, addend: 0x0, symName: __ZNSt3__16vectorIiNS_9allocatorIiEEE16__destroy_vectorclB7v160006Ev, symObjAddr: 0x20D8, symBinAddr: 0x10000391C, symSize: 0x9C }
  - { offsetInCU: 0xE180, offset: 0xE180, size: 0x8, addend: 0x0, symName: __ZNKSt3__16vectorIiNS_9allocatorIiEEE17__annotate_deleteB7v160006Ev, symObjAddr: 0x2174, symBinAddr: 0x1000039B8, symSize: 0xB8 }
  - { offsetInCU: 0xE1A5, offset: 0xE1A5, size: 0x8, addend: 0x0, symName: __ZNSt3__16vectorIiNS_9allocatorIiEEE7__clearB7v160006Ev, symObjAddr: 0x223C, symBinAddr: 0x100003A80, symSize: 0x28 }
  - { offsetInCU: 0xE1CA, offset: 0xE1CA, size: 0x8, addend: 0x0, symName: __ZNSt3__116allocator_traitsINS_9allocatorIiEEE10deallocateB7v160006ERS2_Pim, symObjAddr: 0x2264, symBinAddr: 0x100003AA8, symSize: 0x34 }
  - { offsetInCU: 0xE20C, offset: 0xE20C, size: 0x8, addend: 0x0, symName: __ZNKSt3__16vectorIiNS_9allocatorIiEEE4sizeB7v160006Ev, symObjAddr: 0x2298, symBinAddr: 0x100003ADC, symSize: 0x28 }
  - { offsetInCU: 0xE231, offset: 0xE231, size: 0x8, addend: 0x0, symName: __ZNSt3__16vectorIiNS_9allocatorIiEEE22__base_destruct_at_endB7v160006EPi, symObjAddr: 0x22C0, symBinAddr: 0x100003B04, symSize: 0xA0 }
  - { offsetInCU: 0xE274, offset: 0xE274, size: 0x8, addend: 0x0, symName: __ZNSt3__116allocator_traitsINS_9allocatorIiEEE7destroyB7v160006IivEEvRS2_PT_, symObjAddr: 0x2360, symBinAddr: 0x100003BA4, symSize: 0x2C }
  - { offsetInCU: 0xE2B1, offset: 0xE2B1, size: 0x8, addend: 0x0, symName: __ZNSt3__19allocatorIiE7destroyB7v160006EPi, symObjAddr: 0x238C, symBinAddr: 0x100003BD0, symSize: 0x14 }
  - { offsetInCU: 0xE2E4, offset: 0xE2E4, size: 0x8, addend: 0x0, symName: __ZNSt3__19allocatorIiE10deallocateB7v160006EPim, symObjAddr: 0x23A0, symBinAddr: 0x100003BE4, symSize: 0x70 }
  - { offsetInCU: 0xE325, offset: 0xE325, size: 0x8, addend: 0x0, symName: __ZNSt3__16vectorIiNS_9allocatorIiEEED2B7v160006Ev, symObjAddr: 0x2410, symBinAddr: 0x100003C54, symSize: 0x3C }
  - { offsetInCU: 0xE34E, offset: 0xE34E, size: 0x8, addend: 0x0, symName: __ZNSt3__16vectorINS0_IiNS_9allocatorIiEEEENS1_IS3_EEEC2EmRKS3_, symObjAddr: 0x244C, symBinAddr: 0x100003C90, symSize: 0xF0 }
  - { offsetInCU: 0xE3AD, offset: 0xE3AD, size: 0x8, addend: 0x0, symName: __ZNSt3__117__compressed_pairIPNS_6vectorIiNS_9allocatorIiEEEENS2_IS4_EEEC1B7v160006IDnNS_18__default_init_tagEEEOT_OT0_, symObjAddr: 0x253C, symBinAddr: 0x100003D80, symSize: 0x3C }
  - { offsetInCU: 0xE404, offset: 0xE404, size: 0x8, addend: 0x0, symName: __ZNSt3__16vectorINS0_IiNS_9allocatorIiEEEENS1_IS3_EEE16__destroy_vectorC1ERS5_, symObjAddr: 0x25B8, symBinAddr: 0x100003DFC, symSize: 0x34 }
  - { offsetInCU: 0xE43C, offset: 0xE43C, size: 0x8, addend: 0x0, symName: __ZNSt3__16vectorINS0_IiNS_9allocatorIiEEEENS1_IS3_EEE11__vallocateB7v160006Em, symObjAddr: 0x25FC, symBinAddr: 0x100003E40, symSize: 0xB4 }
  - { offsetInCU: 0xE47E, offset: 0xE47E, size: 0x8, addend: 0x0, symName: __ZNSt3__16vectorINS0_IiNS_9allocatorIiEEEENS1_IS3_EEE18__construct_at_endEmRKS3_, symObjAddr: 0x26B0, symBinAddr: 0x100003EF4, symSize: 0xD8 }
  - { offsetInCU: 0xE4FE, offset: 0xE4FE, size: 0x8, addend: 0x0, symName: __ZNSt3__128__exception_guard_exceptionsINS_6vectorINS1_IiNS_9allocatorIiEEEENS2_IS4_EEE16__destroy_vectorEE10__completeB7v160006Ev, symObjAddr: 0x2788, symBinAddr: 0x100003FCC, symSize: 0x1C }
  - { offsetInCU: 0xE523, offset: 0xE523, size: 0x8, addend: 0x0, symName: __ZNSt3__128__exception_guard_exceptionsINS_6vectorINS1_IiNS_9allocatorIiEEEENS2_IS4_EEE16__destroy_vectorEED1B7v160006Ev, symObjAddr: 0x27A4, symBinAddr: 0x100003FE8, symSize: 0x2C }
  - { offsetInCU: 0xE54C, offset: 0xE54C, size: 0x8, addend: 0x0, symName: __ZNSt3__117__compressed_pairIPNS_6vectorIiNS_9allocatorIiEEEENS2_IS4_EEEC2B7v160006IDnNS_18__default_init_tagEEEOT_OT0_, symObjAddr: 0x27D0, symBinAddr: 0x100004014, symSize: 0x40 }
  - { offsetInCU: 0xE5A3, offset: 0xE5A3, size: 0x8, addend: 0x0, symName: __ZNSt3__122__compressed_pair_elemIPNS_6vectorIiNS_9allocatorIiEEEELi0ELb0EEC2B7v160006IDnvEEOT_, symObjAddr: 0x2810, symBinAddr: 0x100004054, symSize: 0x1C }
  - { offsetInCU: 0xE5E4, offset: 0xE5E4, size: 0x8, addend: 0x0, symName: __ZNSt3__122__compressed_pair_elemINS_9allocatorINS_6vectorIiNS1_IiEEEEEELi1ELb1EEC2B7v160006ENS_18__default_init_tagE, symObjAddr: 0x282C, symBinAddr: 0x100004070, symSize: 0x2C }
  - { offsetInCU: 0xE618, offset: 0xE618, size: 0x8, addend: 0x0, symName: __ZNSt3__19allocatorINS_6vectorIiNS0_IiEEEEEC2B7v160006Ev, symObjAddr: 0x2858, symBinAddr: 0x10000409C, symSize: 0x2C }
  - { offsetInCU: 0xE641, offset: 0xE641, size: 0x8, addend: 0x0, symName: __ZNSt3__116__non_trivial_ifILb1ENS_9allocatorINS_6vectorIiNS1_IiEEEEEEEC2B7v160006Ev, symObjAddr: 0x2884, symBinAddr: 0x1000040C8, symSize: 0x14 }
  - { offsetInCU: 0xE66A, offset: 0xE66A, size: 0x8, addend: 0x0, symName: __ZNSt3__128__exception_guard_exceptionsINS_6vectorINS1_IiNS_9allocatorIiEEEENS2_IS4_EEE16__destroy_vectorEEC1B7v160006ES7_, symObjAddr: 0x2898, symBinAddr: 0x1000040DC, symSize: 0x34 }
  - { offsetInCU: 0xE6A1, offset: 0xE6A1, size: 0x8, addend: 0x0, symName: __ZNSt3__128__exception_guard_exceptionsINS_6vectorINS1_IiNS_9allocatorIiEEEENS2_IS4_EEE16__destroy_vectorEEC2B7v160006ES7_, symObjAddr: 0x28CC, symBinAddr: 0x100004110, symSize: 0x24 }
  - { offsetInCU: 0xE6D8, offset: 0xE6D8, size: 0x8, addend: 0x0, symName: __ZNSt3__16vectorINS0_IiNS_9allocatorIiEEEENS1_IS3_EEE16__destroy_vectorC2ERS5_, symObjAddr: 0x28F0, symBinAddr: 0x100004134, symSize: 0x20 }
  - { offsetInCU: 0xE70F, offset: 0xE70F, size: 0x8, addend: 0x0, symName: __ZNKSt3__16vectorINS0_IiNS_9allocatorIiEEEENS1_IS3_EEE8max_sizeEv, symObjAddr: 0x2910, symBinAddr: 0x100004154, symSize: 0x74 }
  - { offsetInCU: 0xE736, offset: 0xE736, size: 0x8, addend: 0x0, symName: __ZNKSt3__16vectorINS0_IiNS_9allocatorIiEEEENS1_IS3_EEE20__throw_length_errorB7v160006Ev, symObjAddr: 0x2984, symBinAddr: 0x1000041C8, symSize: 0x1C }
  - { offsetInCU: 0xE75B, offset: 0xE75B, size: 0x8, addend: 0x0, symName: __ZNSt3__16vectorINS0_IiNS_9allocatorIiEEEENS1_IS3_EEE7__allocB7v160006Ev, symObjAddr: 0x29E0, symBinAddr: 0x100004224, symSize: 0x28 }
  - { offsetInCU: 0xE780, offset: 0xE780, size: 0x8, addend: 0x0, symName: __ZNSt3__16vectorINS0_IiNS_9allocatorIiEEEENS1_IS3_EEE9__end_capB7v160006Ev, symObjAddr: 0x2A08, symBinAddr: 0x10000424C, symSize: 0x28 }
  - { offsetInCU: 0xE7A5, offset: 0xE7A5, size: 0x8, addend: 0x0, symName: __ZNKSt3__16vectorINS0_IiNS_9allocatorIiEEEENS1_IS3_EEE14__annotate_newB7v160006Em, symObjAddr: 0x2A30, symBinAddr: 0x100004274, symSize: 0xC8 }
  - { offsetInCU: 0xE7E3, offset: 0xE7E3, size: 0x8, addend: 0x0, symName: __ZNSt3__116allocator_traitsINS_9allocatorINS_6vectorIiNS1_IiEEEEEEE8max_sizeB7v160006IS5_vEEmRKS5_, symObjAddr: 0x2AF8, symBinAddr: 0x10000433C, symSize: 0x24 }
  - { offsetInCU: 0xE811, offset: 0xE811, size: 0x8, addend: 0x0, symName: __ZNKSt3__16vectorINS0_IiNS_9allocatorIiEEEENS1_IS3_EEE7__allocB7v160006Ev, symObjAddr: 0x2B1C, symBinAddr: 0x100004360, symSize: 0x28 }
  - { offsetInCU: 0xE836, offset: 0xE836, size: 0x8, addend: 0x0, symName: __ZNKSt3__19allocatorINS_6vectorIiNS0_IiEEEEE8max_sizeB7v160006Ev, symObjAddr: 0x2B44, symBinAddr: 0x100004388, symSize: 0x18 }
  - { offsetInCU: 0xE85B, offset: 0xE85B, size: 0x8, addend: 0x0, symName: __ZNKSt3__117__compressed_pairIPNS_6vectorIiNS_9allocatorIiEEEENS2_IS4_EEE6secondB7v160006Ev, symObjAddr: 0x2B5C, symBinAddr: 0x1000043A0, symSize: 0x24 }
  - { offsetInCU: 0xE880, offset: 0xE880, size: 0x8, addend: 0x0, symName: __ZNKSt3__122__compressed_pair_elemINS_9allocatorINS_6vectorIiNS1_IiEEEEEELi1ELb1EE5__getB7v160006Ev, symObjAddr: 0x2B80, symBinAddr: 0x1000043C4, symSize: 0x14 }
  - { offsetInCU: 0xE8A5, offset: 0xE8A5, size: 0x8, addend: 0x0, symName: __ZNSt3__19allocatorINS_6vectorIiNS0_IiEEEEE8allocateB7v160006Em, symObjAddr: 0x2B94, symBinAddr: 0x1000043D8, symSize: 0x8C }
  - { offsetInCU: 0xE8D8, offset: 0xE8D8, size: 0x8, addend: 0x0, symName: __ZNSt3__117__compressed_pairIPNS_6vectorIiNS_9allocatorIiEEEENS2_IS4_EEE6secondB7v160006Ev, symObjAddr: 0x2C20, symBinAddr: 0x100004464, symSize: 0x24 }
  - { offsetInCU: 0xE8FD, offset: 0xE8FD, size: 0x8, addend: 0x0, symName: __ZNSt3__122__compressed_pair_elemINS_9allocatorINS_6vectorIiNS1_IiEEEEEELi1ELb1EE5__getB7v160006Ev, symObjAddr: 0x2C44, symBinAddr: 0x100004488, symSize: 0x14 }
  - { offsetInCU: 0xE922, offset: 0xE922, size: 0x8, addend: 0x0, symName: __ZNSt3__117__compressed_pairIPNS_6vectorIiNS_9allocatorIiEEEENS2_IS4_EEE5firstB7v160006Ev, symObjAddr: 0x2C58, symBinAddr: 0x10000449C, symSize: 0x24 }
  - { offsetInCU: 0xE947, offset: 0xE947, size: 0x8, addend: 0x0, symName: __ZNSt3__122__compressed_pair_elemIPNS_6vectorIiNS_9allocatorIiEEEELi0ELb0EE5__getB7v160006Ev, symObjAddr: 0x2C7C, symBinAddr: 0x1000044C0, symSize: 0x14 }
  - { offsetInCU: 0xE96C, offset: 0xE96C, size: 0x8, addend: 0x0, symName: __ZNKSt3__16vectorINS0_IiNS_9allocatorIiEEEENS1_IS3_EEE31__annotate_contiguous_containerB7v160006EPKvS7_S7_S7_, symObjAddr: 0x2C90, symBinAddr: 0x1000044D4, symSize: 0x20 }
  - { offsetInCU: 0xE9C1, offset: 0xE9C1, size: 0x8, addend: 0x0, symName: __ZNKSt3__16vectorINS0_IiNS_9allocatorIiEEEENS1_IS3_EEE4dataB7v160006Ev, symObjAddr: 0x2CB0, symBinAddr: 0x1000044F4, symSize: 0x28 }
  - { offsetInCU: 0xE9E6, offset: 0xE9E6, size: 0x8, addend: 0x0, symName: __ZNKSt3__16vectorINS0_IiNS_9allocatorIiEEEENS1_IS3_EEE8capacityB7v160006Ev, symObjAddr: 0x2CD8, symBinAddr: 0x10000451C, symSize: 0x40 }
  - { offsetInCU: 0xEA0B, offset: 0xEA0B, size: 0x8, addend: 0x0, symName: __ZNKSt3__16vectorINS0_IiNS_9allocatorIiEEEENS1_IS3_EEE9__end_capB7v160006Ev, symObjAddr: 0x2D2C, symBinAddr: 0x100004570, symSize: 0x28 }
  - { offsetInCU: 0xEA30, offset: 0xEA30, size: 0x8, addend: 0x0, symName: __ZNKSt3__117__compressed_pairIPNS_6vectorIiNS_9allocatorIiEEEENS2_IS4_EEE5firstB7v160006Ev, symObjAddr: 0x2D54, symBinAddr: 0x100004598, symSize: 0x24 }
  - { offsetInCU: 0xEA55, offset: 0xEA55, size: 0x8, addend: 0x0, symName: __ZNKSt3__122__compressed_pair_elemIPNS_6vectorIiNS_9allocatorIiEEEELi0ELb0EE5__getB7v160006Ev, symObjAddr: 0x2D78, symBinAddr: 0x1000045BC, symSize: 0x14 }
  - { offsetInCU: 0xEA93, offset: 0xEA93, size: 0x8, addend: 0x0, symName: __ZNSt3__16vectorINS0_IiNS_9allocatorIiEEEENS1_IS3_EEE21_ConstructTransactionC1B7v160006ERS5_m, symObjAddr: 0x2D8C, symBinAddr: 0x1000045D0, symSize: 0x3C }
  - { offsetInCU: 0xEADA, offset: 0xEADA, size: 0x8, addend: 0x0, symName: __ZNSt3__116allocator_traitsINS_9allocatorINS_6vectorIiNS1_IiEEEEEEE9constructB7v160006IS4_JRKS4_EvEEvRS5_PT_DpOT0_, symObjAddr: 0x2DC8, symBinAddr: 0x10000460C, symSize: 0x34 }
  - { offsetInCU: 0xEB31, offset: 0xEB31, size: 0x8, addend: 0x0, symName: __ZNSt3__16vectorINS0_IiNS_9allocatorIiEEEENS1_IS3_EEE21_ConstructTransactionD1B7v160006Ev, symObjAddr: 0x2DFC, symBinAddr: 0x100004640, symSize: 0x2C }
  - { offsetInCU: 0xEB5A, offset: 0xEB5A, size: 0x8, addend: 0x0, symName: __ZNSt3__16vectorINS0_IiNS_9allocatorIiEEEENS1_IS3_EEE21_ConstructTransactionC2B7v160006ERS5_m, symObjAddr: 0x2E28, symBinAddr: 0x10000466C, symSize: 0x4C }
  - { offsetInCU: 0xEBA1, offset: 0xEBA1, size: 0x8, addend: 0x0, symName: __ZNSt3__19allocatorINS_6vectorIiNS0_IiEEEEE9constructB7v160006IS3_JRKS3_EEEvPT_DpOT0_, symObjAddr: 0x2E74, symBinAddr: 0x1000046B8, symSize: 0x30 }
  - { offsetInCU: 0xEBF6, offset: 0xEBF6, size: 0x8, addend: 0x0, symName: __ZNSt3__16vectorIiNS_9allocatorIiEEEC1ERKS3_, symObjAddr: 0x2EA4, symBinAddr: 0x1000046E8, symSize: 0x34 }
  - { offsetInCU: 0xEC30, offset: 0xEC30, size: 0x8, addend: 0x0, symName: __ZNSt3__16vectorIiNS_9allocatorIiEEEC2ERKS3_, symObjAddr: 0x2ED8, symBinAddr: 0x10000471C, symSize: 0x118 }
  - { offsetInCU: 0xEC8F, offset: 0xEC8F, size: 0x8, addend: 0x0, symName: __ZNSt3__116allocator_traitsINS_9allocatorIiEEE37select_on_container_copy_constructionB7v160006IS2_vvEES2_RKS2_, symObjAddr: 0x2FF0, symBinAddr: 0x100004834, symSize: 0x10 }
  - { offsetInCU: 0xECC3, offset: 0xECC3, size: 0x8, addend: 0x0, symName: __ZNSt3__117__compressed_pairIPiNS_9allocatorIiEEEC1B7v160006IDnS3_EEOT_OT0_, symObjAddr: 0x3000, symBinAddr: 0x100004844, symSize: 0x3C }
  - { offsetInCU: 0xED19, offset: 0xED19, size: 0x8, addend: 0x0, symName: __ZNSt3__16vectorIiNS_9allocatorIiEEE18__construct_at_endIPiLi0EEEvT_S6_m, symObjAddr: 0x303C, symBinAddr: 0x100004880, symSize: 0x94 }
  - { offsetInCU: 0xED8B, offset: 0xED8B, size: 0x8, addend: 0x0, symName: __ZNSt3__117__compressed_pairIPiNS_9allocatorIiEEEC2B7v160006IDnS3_EEOT_OT0_, symObjAddr: 0x30D0, symBinAddr: 0x100004914, symSize: 0x44 }
  - { offsetInCU: 0xEDE2, offset: 0xEDE2, size: 0x8, addend: 0x0, symName: __ZNSt3__122__compressed_pair_elemINS_9allocatorIiEELi1ELb1EEC2B7v160006IS2_vEEOT_, symObjAddr: 0x3114, symBinAddr: 0x100004958, symSize: 0x18 }
  - { offsetInCU: 0xEE23, offset: 0xEE23, size: 0x8, addend: 0x0, symName: __ZNSt3__129_AllocatorDestroyRangeReverseINS_9allocatorIiEEPiEC1B7v160006ERS2_RS3_S6_, symObjAddr: 0x3274, symBinAddr: 0x100004AB8, symSize: 0x44 }
  - { offsetInCU: 0xEE79, offset: 0xEE79, size: 0x8, addend: 0x0, symName: __ZNSt3__116allocator_traitsINS_9allocatorIiEEE9constructB7v160006IiJRiEvEEvRS2_PT_DpOT0_, symObjAddr: 0x32B8, symBinAddr: 0x100004AFC, symSize: 0x34 }
  - { offsetInCU: 0xEED0, offset: 0xEED0, size: 0x8, addend: 0x0, symName: __ZNSt3__128__exception_guard_exceptionsINS_29_AllocatorDestroyRangeReverseINS_9allocatorIiEEPiEEE10__completeB7v160006Ev, symObjAddr: 0x32EC, symBinAddr: 0x100004B30, symSize: 0x1C }
  - { offsetInCU: 0xEEF5, offset: 0xEEF5, size: 0x8, addend: 0x0, symName: __ZNSt3__128__exception_guard_exceptionsINS_29_AllocatorDestroyRangeReverseINS_9allocatorIiEEPiEEED1B7v160006Ev, symObjAddr: 0x3308, symBinAddr: 0x100004B4C, symSize: 0x2C }
  - { offsetInCU: 0xEF1E, offset: 0xEF1E, size: 0x8, addend: 0x0, symName: __ZNSt3__128__exception_guard_exceptionsINS_29_AllocatorDestroyRangeReverseINS_9allocatorIiEEPiEEEC1B7v160006ES5_, symObjAddr: 0x3334, symBinAddr: 0x100004B78, symSize: 0x34 }
  - { offsetInCU: 0xEF56, offset: 0xEF56, size: 0x8, addend: 0x0, symName: __ZNSt3__128__exception_guard_exceptionsINS_29_AllocatorDestroyRangeReverseINS_9allocatorIiEEPiEEEC2B7v160006ES5_, symObjAddr: 0x3368, symBinAddr: 0x100004BAC, symSize: 0x30 }
  - { offsetInCU: 0xEF8E, offset: 0xEF8E, size: 0x8, addend: 0x0, symName: __ZNSt3__129_AllocatorDestroyRangeReverseINS_9allocatorIiEEPiEC2B7v160006ERS2_RS3_S6_, symObjAddr: 0x3398, symBinAddr: 0x100004BDC, symSize: 0x38 }
  - { offsetInCU: 0xEFE4, offset: 0xEFE4, size: 0x8, addend: 0x0, symName: __ZNSt3__19allocatorIiE9constructB7v160006IiJRiEEEvPT_DpOT0_, symObjAddr: 0x33D0, symBinAddr: 0x100004C14, symSize: 0x28 }
  - { offsetInCU: 0xF039, offset: 0xF039, size: 0x8, addend: 0x0, symName: __ZNSt3__128__exception_guard_exceptionsINS_29_AllocatorDestroyRangeReverseINS_9allocatorIiEEPiEEED2B7v160006Ev, symObjAddr: 0x33F8, symBinAddr: 0x100004C3C, symSize: 0x48 }
  - { offsetInCU: 0xF062, offset: 0xF062, size: 0x8, addend: 0x0, symName: __ZNKSt3__129_AllocatorDestroyRangeReverseINS_9allocatorIiEEPiEclB7v160006Ev, symObjAddr: 0x3440, symBinAddr: 0x100004C84, symSize: 0x68 }
  - { offsetInCU: 0xF087, offset: 0xF087, size: 0x8, addend: 0x0, symName: __ZNSt3__116reverse_iteratorIPiEC1B7v160006ES1_, symObjAddr: 0x3518, symBinAddr: 0x100004D5C, symSize: 0x34 }
  - { offsetInCU: 0xF0BE, offset: 0xF0BE, size: 0x8, addend: 0x0, symName: __ZNSt3__116reverse_iteratorIPiEppB7v160006Ev, symObjAddr: 0x35B8, symBinAddr: 0x100004DFC, symSize: 0x20 }
  - { offsetInCU: 0xF0E3, offset: 0xF0E3, size: 0x8, addend: 0x0, symName: __ZNKSt3__116reverse_iteratorIPiE4baseB7v160006Ev, symObjAddr: 0x35D8, symBinAddr: 0x100004E1C, symSize: 0x18 }
  - { offsetInCU: 0xF10D, offset: 0xF10D, size: 0x8, addend: 0x0, symName: __ZNSt3__119__to_address_helperINS_16reverse_iteratorIPiEEvE6__callB7v160006ERKS3_, symObjAddr: 0x35F0, symBinAddr: 0x100004E34, symSize: 0x4C }
  - { offsetInCU: 0xF130, offset: 0xF130, size: 0x8, addend: 0x0, symName: __ZNKSt3__116reverse_iteratorIPiEptB7v160006Ev, symObjAddr: 0x363C, symBinAddr: 0x100004E80, symSize: 0x24 }
  - { offsetInCU: 0xF155, offset: 0xF155, size: 0x8, addend: 0x0, symName: __ZNKSt3__116reverse_iteratorIPiEdeB7v160006Ev, symObjAddr: 0x3660, symBinAddr: 0x100004EA4, symSize: 0x28 }
  - { offsetInCU: 0xF188, offset: 0xF188, size: 0x8, addend: 0x0, symName: __ZNSt3__116reverse_iteratorIPiEC2B7v160006ES1_, symObjAddr: 0x3688, symBinAddr: 0x100004ECC, symSize: 0x28 }
  - { offsetInCU: 0xF1BF, offset: 0xF1BF, size: 0x8, addend: 0x0, symName: __ZNSt3__16vectorINS0_IiNS_9allocatorIiEEEENS1_IS3_EEE21_ConstructTransactionD2B7v160006Ev, symObjAddr: 0x36B0, symBinAddr: 0x100004EF4, symSize: 0x20 }
  - { offsetInCU: 0xF1E8, offset: 0xF1E8, size: 0x8, addend: 0x0, symName: __ZNSt3__128__exception_guard_exceptionsINS_6vectorINS1_IiNS_9allocatorIiEEEENS2_IS4_EEE16__destroy_vectorEED2B7v160006Ev, symObjAddr: 0x36D0, symBinAddr: 0x100004F14, symSize: 0x48 }
  - { offsetInCU: 0xF211, offset: 0xF211, size: 0x8, addend: 0x0, symName: __ZNSt3__16vectorINS0_IiNS_9allocatorIiEEEENS1_IS3_EEE16__destroy_vectorclB7v160006Ev, symObjAddr: 0x3718, symBinAddr: 0x100004F5C, symSize: 0x9C }
  - { offsetInCU: 0xF236, offset: 0xF236, size: 0x8, addend: 0x0, symName: __ZNKSt3__16vectorINS0_IiNS_9allocatorIiEEEENS1_IS3_EEE17__annotate_deleteB7v160006Ev, symObjAddr: 0x37B4, symBinAddr: 0x100004FF8, symSize: 0xD4 }
  - { offsetInCU: 0xF25B, offset: 0xF25B, size: 0x8, addend: 0x0, symName: __ZNSt3__16vectorINS0_IiNS_9allocatorIiEEEENS1_IS3_EEE7__clearB7v160006Ev, symObjAddr: 0x3898, symBinAddr: 0x1000050DC, symSize: 0x28 }
  - { offsetInCU: 0xF280, offset: 0xF280, size: 0x8, addend: 0x0, symName: __ZNSt3__116allocator_traitsINS_9allocatorINS_6vectorIiNS1_IiEEEEEEE10deallocateB7v160006ERS5_PS4_m, symObjAddr: 0x38C0, symBinAddr: 0x100005104, symSize: 0x34 }
  - { offsetInCU: 0xF2C2, offset: 0xF2C2, size: 0x8, addend: 0x0, symName: __ZNKSt3__16vectorINS0_IiNS_9allocatorIiEEEENS1_IS3_EEE4sizeB7v160006Ev, symObjAddr: 0x38F4, symBinAddr: 0x100005138, symSize: 0x28 }
  - { offsetInCU: 0xF2E7, offset: 0xF2E7, size: 0x8, addend: 0x0, symName: __ZNSt3__16vectorINS0_IiNS_9allocatorIiEEEENS1_IS3_EEE22__base_destruct_at_endB7v160006EPS3_, symObjAddr: 0x391C, symBinAddr: 0x100005160, symSize: 0xA0 }
  - { offsetInCU: 0xF32A, offset: 0xF32A, size: 0x8, addend: 0x0, symName: __ZNSt3__116allocator_traitsINS_9allocatorINS_6vectorIiNS1_IiEEEEEEE7destroyB7v160006IS4_vEEvRS5_PT_, symObjAddr: 0x39BC, symBinAddr: 0x100005200, symSize: 0x2C }
  - { offsetInCU: 0xF367, offset: 0xF367, size: 0x8, addend: 0x0, symName: __ZNSt3__19allocatorINS_6vectorIiNS0_IiEEEEE7destroyB7v160006EPS3_, symObjAddr: 0x39E8, symBinAddr: 0x10000522C, symSize: 0x28 }
  - { offsetInCU: 0xF39A, offset: 0xF39A, size: 0x8, addend: 0x0, symName: __ZNSt3__19allocatorINS_6vectorIiNS0_IiEEEEE10deallocateB7v160006EPS3_m, symObjAddr: 0x3A10, symBinAddr: 0x100005254, symSize: 0x74 }
  - { offsetInCU: 0xF3DB, offset: 0xF3DB, size: 0x8, addend: 0x0, symName: __ZNSt3__16vectorINS0_IiNS_9allocatorIiEEEENS1_IS3_EEED2B7v160006Ev, symObjAddr: 0x3A84, symBinAddr: 0x1000052C8, symSize: 0x3C }
  - { offsetInCU: 0xF404, offset: 0xF404, size: 0x8, addend: 0x0, symName: __ZNSt3__114priority_queueINS_4pairINS1_IiiEES2_EENS_6vectorIS3_NS_9allocatorIS3_EEEENS_4lessIS3_EEEC2B7v160006Ev, symObjAddr: 0x3AC0, symBinAddr: 0x100005304, symSize: 0x2C }
  - { offsetInCU: 0xF42D, offset: 0xF42D, size: 0x8, addend: 0x0, symName: __ZNSt3__16vectorINS_4pairINS1_IiiEES2_EENS_9allocatorIS3_EEEC1B7v160006Ev, symObjAddr: 0x3AEC, symBinAddr: 0x100005330, symSize: 0x2C }
  - { offsetInCU: 0xF456, offset: 0xF456, size: 0x8, addend: 0x0, symName: __ZNSt3__16vectorINS_4pairINS1_IiiEES2_EENS_9allocatorIS3_EEEC2B7v160006Ev, symObjAddr: 0x3B18, symBinAddr: 0x10000535C, symSize: 0x4C }
  - { offsetInCU: 0xF47F, offset: 0xF47F, size: 0x8, addend: 0x0, symName: __ZNSt3__117__compressed_pairIPNS_4pairINS1_IiiEES2_EENS_9allocatorIS3_EEEC1B7v160006IDnNS_18__default_init_tagEEEOT_OT0_, symObjAddr: 0x3B64, symBinAddr: 0x1000053A8, symSize: 0x3C }
  - { offsetInCU: 0xF4D6, offset: 0xF4D6, size: 0x8, addend: 0x0, symName: __ZNSt3__117__compressed_pairIPNS_4pairINS1_IiiEES2_EENS_9allocatorIS3_EEEC2B7v160006IDnNS_18__default_init_tagEEEOT_OT0_, symObjAddr: 0x3BB0, symBinAddr: 0x1000053F4, symSize: 0x40 }
  - { offsetInCU: 0xF52D, offset: 0xF52D, size: 0x8, addend: 0x0, symName: __ZNSt3__122__compressed_pair_elemIPNS_4pairINS1_IiiEES2_EELi0ELb0EEC2B7v160006IDnvEEOT_, symObjAddr: 0x3BF0, symBinAddr: 0x100005434, symSize: 0x1C }
  - { offsetInCU: 0xF56E, offset: 0xF56E, size: 0x8, addend: 0x0, symName: __ZNSt3__122__compressed_pair_elemINS_9allocatorINS_4pairINS2_IiiEES3_EEEELi1ELb1EEC2B7v160006ENS_18__default_init_tagE, symObjAddr: 0x3C0C, symBinAddr: 0x100005450, symSize: 0x2C }
  - { offsetInCU: 0xF5A2, offset: 0xF5A2, size: 0x8, addend: 0x0, symName: __ZNSt3__19allocatorINS_4pairINS1_IiiEES2_EEEC2B7v160006Ev, symObjAddr: 0x3C38, symBinAddr: 0x10000547C, symSize: 0x2C }
  - { offsetInCU: 0xF5CB, offset: 0xF5CB, size: 0x8, addend: 0x0, symName: __ZNSt3__116__non_trivial_ifILb1ENS_9allocatorINS_4pairINS2_IiiEES3_EEEEEC2B7v160006Ev, symObjAddr: 0x3C64, symBinAddr: 0x1000054A8, symSize: 0x14 }
  - { offsetInCU: 0xF5F3, offset: 0xF5F3, size: 0x8, addend: 0x0, symName: __ZNSt3__16vectorINS_4pairINS1_IiiEES2_EENS_9allocatorIS3_EEE9push_backB7v160006ERKS3_, symObjAddr: 0x3C78, symBinAddr: 0x1000054BC, symSize: 0x6C }
  - { offsetInCU: 0xF628, offset: 0xF628, size: 0x8, addend: 0x0, symName: __ZNSt3__16vectorINS_4pairINS1_IiiEES2_EENS_9allocatorIS3_EEE5beginB7v160006Ev, symObjAddr: 0x3D24, symBinAddr: 0x100005568, symSize: 0x30 }
  - { offsetInCU: 0xF64E, offset: 0xF64E, size: 0x8, addend: 0x0, symName: __ZNSt3__16vectorINS_4pairINS1_IiiEES2_EENS_9allocatorIS3_EEE3endB7v160006Ev, symObjAddr: 0x3D54, symBinAddr: 0x100005598, symSize: 0x30 }
  - { offsetInCU: 0xF675, offset: 0xF675, size: 0x8, addend: 0x0, symName: __ZNSt3__16vectorINS_4pairINS1_IiiEES2_EENS_9allocatorIS3_EEE9__end_capB7v160006Ev, symObjAddr: 0x3D84, symBinAddr: 0x1000055C8, symSize: 0x28 }
  - { offsetInCU: 0xF69A, offset: 0xF69A, size: 0x8, addend: 0x0, symName: __ZNSt3__16vectorINS_4pairINS1_IiiEES2_EENS_9allocatorIS3_EEE22__construct_one_at_endB7v160006IJRKS3_EEEvDpOT_, symObjAddr: 0x3DAC, symBinAddr: 0x1000055F0, symSize: 0x98 }
  - { offsetInCU: 0xF6E7, offset: 0xF6E7, size: 0x8, addend: 0x0, symName: __ZNSt3__16vectorINS_4pairINS1_IiiEES2_EENS_9allocatorIS3_EEE21__push_back_slow_pathIRKS3_EEvOT_, symObjAddr: 0x3E44, symBinAddr: 0x100005688, symSize: 0xE0 }
  - { offsetInCU: 0xF744, offset: 0xF744, size: 0x8, addend: 0x0, symName: __ZNSt3__117__compressed_pairIPNS_4pairINS1_IiiEES2_EENS_9allocatorIS3_EEE5firstB7v160006Ev, symObjAddr: 0x3F24, symBinAddr: 0x100005768, symSize: 0x24 }
  - { offsetInCU: 0xF769, offset: 0xF769, size: 0x8, addend: 0x0, symName: __ZNSt3__122__compressed_pair_elemIPNS_4pairINS1_IiiEES2_EELi0ELb0EE5__getB7v160006Ev, symObjAddr: 0x3F48, symBinAddr: 0x10000578C, symSize: 0x14 }
  - { offsetInCU: 0xF7A7, offset: 0xF7A7, size: 0x8, addend: 0x0, symName: __ZNSt3__16vectorINS_4pairINS1_IiiEES2_EENS_9allocatorIS3_EEE21_ConstructTransactionC1B7v160006ERS6_m, symObjAddr: 0x3F5C, symBinAddr: 0x1000057A0, symSize: 0x3C }
  - { offsetInCU: 0xF7EE, offset: 0xF7EE, size: 0x8, addend: 0x0, symName: __ZNSt3__116allocator_traitsINS_9allocatorINS_4pairINS2_IiiEES3_EEEEE9constructB7v160006IS4_JRKS4_EvEEvRS5_PT_DpOT0_, symObjAddr: 0x3F98, symBinAddr: 0x1000057DC, symSize: 0x34 }
  - { offsetInCU: 0xF845, offset: 0xF845, size: 0x8, addend: 0x0, symName: __ZNSt3__16vectorINS_4pairINS1_IiiEES2_EENS_9allocatorIS3_EEE21_ConstructTransactionD1B7v160006Ev, symObjAddr: 0x3FCC, symBinAddr: 0x100005810, symSize: 0x2C }
  - { offsetInCU: 0xF86E, offset: 0xF86E, size: 0x8, addend: 0x0, symName: __ZNSt3__16vectorINS_4pairINS1_IiiEES2_EENS_9allocatorIS3_EEE21_ConstructTransactionC2B7v160006ERS6_m, symObjAddr: 0x3FF8, symBinAddr: 0x10000583C, symSize: 0x44 }
  - { offsetInCU: 0xF8B5, offset: 0xF8B5, size: 0x8, addend: 0x0, symName: __ZNSt3__19allocatorINS_4pairINS1_IiiEES2_EEE9constructB7v160006IS3_JRKS3_EEEvPT_DpOT0_, symObjAddr: 0x403C, symBinAddr: 0x100005880, symSize: 0x28 }
  - { offsetInCU: 0xF90A, offset: 0xF90A, size: 0x8, addend: 0x0, symName: __ZNSt3__16vectorINS_4pairINS1_IiiEES2_EENS_9allocatorIS3_EEE21_ConstructTransactionD2B7v160006Ev, symObjAddr: 0x4064, symBinAddr: 0x1000058A8, symSize: 0x20 }
  - { offsetInCU: 0xF932, offset: 0xF932, size: 0x8, addend: 0x0, symName: __ZNKSt3__16vectorINS_4pairINS1_IiiEES2_EENS_9allocatorIS3_EEE11__recommendB7v160006Em, symObjAddr: 0x4084, symBinAddr: 0x1000058C8, symSize: 0xB4 }
  - { offsetInCU: 0xF986, offset: 0xF986, size: 0x8, addend: 0x0, symName: __ZNSt3__114__split_bufferINS_4pairINS1_IiiEES2_EERNS_9allocatorIS3_EEEC1EmmS6_, symObjAddr: 0x4138, symBinAddr: 0x10000597C, symSize: 0x44 }
  - { offsetInCU: 0xF9DB, offset: 0xF9DB, size: 0x8, addend: 0x0, symName: __ZNSt3__114__split_bufferINS_4pairINS1_IiiEES2_EERNS_9allocatorIS3_EEED1Ev, symObjAddr: 0x4294, symBinAddr: 0x100005AD8, symSize: 0x2C }
  - { offsetInCU: 0xFA05, offset: 0xFA05, size: 0x8, addend: 0x0, symName: __ZNKSt3__16vectorINS_4pairINS1_IiiEES2_EENS_9allocatorIS3_EEE8max_sizeEv, symObjAddr: 0x42C0, symBinAddr: 0x100005B04, symSize: 0x74 }
  - { offsetInCU: 0xFA2C, offset: 0xFA2C, size: 0x8, addend: 0x0, symName: __ZNKSt3__16vectorINS_4pairINS1_IiiEES2_EENS_9allocatorIS3_EEE20__throw_length_errorB7v160006Ev, symObjAddr: 0x4334, symBinAddr: 0x100005B78, symSize: 0x1C }
  - { offsetInCU: 0xFA5B, offset: 0xFA5B, size: 0x8, addend: 0x0, symName: __ZNSt3__116allocator_traitsINS_9allocatorINS_4pairINS2_IiiEES3_EEEEE8max_sizeB7v160006IS5_vEEmRKS5_, symObjAddr: 0x437C, symBinAddr: 0x100005BC0, symSize: 0x24 }
  - { offsetInCU: 0xFA89, offset: 0xFA89, size: 0x8, addend: 0x0, symName: __ZNKSt3__16vectorINS_4pairINS1_IiiEES2_EENS_9allocatorIS3_EEE7__allocB7v160006Ev, symObjAddr: 0x43A0, symBinAddr: 0x100005BE4, symSize: 0x28 }
  - { offsetInCU: 0xFAAE, offset: 0xFAAE, size: 0x8, addend: 0x0, symName: __ZNKSt3__19allocatorINS_4pairINS1_IiiEES2_EEE8max_sizeB7v160006Ev, symObjAddr: 0x43C8, symBinAddr: 0x100005C0C, symSize: 0x14 }
  - { offsetInCU: 0xFAD3, offset: 0xFAD3, size: 0x8, addend: 0x0, symName: __ZNKSt3__117__compressed_pairIPNS_4pairINS1_IiiEES2_EENS_9allocatorIS3_EEE6secondB7v160006Ev, symObjAddr: 0x43DC, symBinAddr: 0x100005C20, symSize: 0x24 }
  - { offsetInCU: 0xFAF8, offset: 0xFAF8, size: 0x8, addend: 0x0, symName: __ZNKSt3__122__compressed_pair_elemINS_9allocatorINS_4pairINS2_IiiEES3_EEEELi1ELb1EE5__getB7v160006Ev, symObjAddr: 0x4400, symBinAddr: 0x100005C44, symSize: 0x14 }
  - { offsetInCU: 0xFB1D, offset: 0xFB1D, size: 0x8, addend: 0x0, symName: __ZNSt3__114__split_bufferINS_4pairINS1_IiiEES2_EERNS_9allocatorIS3_EEEC2EmmS6_, symObjAddr: 0x4468, symBinAddr: 0x100005CAC, symSize: 0xD4 }
  - { offsetInCU: 0xFB8F, offset: 0xFB8F, size: 0x8, addend: 0x0, symName: __ZNSt3__117__compressed_pairIPNS_4pairINS1_IiiEES2_EERNS_9allocatorIS3_EEEC1B7v160006IDnS7_EEOT_OT0_, symObjAddr: 0x453C, symBinAddr: 0x100005D80, symSize: 0x3C }
  - { offsetInCU: 0xFBE6, offset: 0xFBE6, size: 0x8, addend: 0x0, symName: __ZNSt3__114__split_bufferINS_4pairINS1_IiiEES2_EERNS_9allocatorIS3_EEE7__allocB7v160006Ev, symObjAddr: 0x45B8, symBinAddr: 0x100005DFC, symSize: 0x28 }
  - { offsetInCU: 0xFC0B, offset: 0xFC0B, size: 0x8, addend: 0x0, symName: __ZNSt3__114__split_bufferINS_4pairINS1_IiiEES2_EERNS_9allocatorIS3_EEE9__end_capB7v160006Ev, symObjAddr: 0x45E0, symBinAddr: 0x100005E24, symSize: 0x28 }
  - { offsetInCU: 0xFC30, offset: 0xFC30, size: 0x8, addend: 0x0, symName: __ZNSt3__117__compressed_pairIPNS_4pairINS1_IiiEES2_EERNS_9allocatorIS3_EEEC2B7v160006IDnS7_EEOT_OT0_, symObjAddr: 0x4608, symBinAddr: 0x100005E4C, symSize: 0x48 }
  - { offsetInCU: 0xFC87, offset: 0xFC87, size: 0x8, addend: 0x0, symName: __ZNSt3__122__compressed_pair_elemIRNS_9allocatorINS_4pairINS2_IiiEES3_EEEELi1ELb0EEC2B7v160006IS6_vEEOT_, symObjAddr: 0x4650, symBinAddr: 0x100005E94, symSize: 0x20 }
  - { offsetInCU: 0xFCC8, offset: 0xFCC8, size: 0x8, addend: 0x0, symName: __ZNSt3__19allocatorINS_4pairINS1_IiiEES2_EEE8allocateB7v160006Em, symObjAddr: 0x4670, symBinAddr: 0x100005EB4, symSize: 0x84 }
  - { offsetInCU: 0xFCFB, offset: 0xFCFB, size: 0x8, addend: 0x0, symName: __ZNSt3__117__compressed_pairIPNS_4pairINS1_IiiEES2_EERNS_9allocatorIS3_EEE6secondB7v160006Ev, symObjAddr: 0x46F4, symBinAddr: 0x100005F38, symSize: 0x28 }
  - { offsetInCU: 0xFD20, offset: 0xFD20, size: 0x8, addend: 0x0, symName: __ZNSt3__122__compressed_pair_elemIRNS_9allocatorINS_4pairINS2_IiiEES3_EEEELi1ELb0EE5__getB7v160006Ev, symObjAddr: 0x471C, symBinAddr: 0x100005F60, symSize: 0x18 }
  - { offsetInCU: 0xFD45, offset: 0xFD45, size: 0x8, addend: 0x0, symName: __ZNSt3__117__compressed_pairIPNS_4pairINS1_IiiEES2_EERNS_9allocatorIS3_EEE5firstB7v160006Ev, symObjAddr: 0x4734, symBinAddr: 0x100005F78, symSize: 0x24 }
  - { offsetInCU: 0xFD6A, offset: 0xFD6A, size: 0x8, addend: 0x0, symName: __ZNSt3__116reverse_iteratorIPNS_4pairINS1_IiiEES2_EEEC1B7v160006ES4_, symObjAddr: 0x488C, symBinAddr: 0x1000060D0, symSize: 0x34 }
  - { offsetInCU: 0xFDA1, offset: 0xFDA1, size: 0x8, addend: 0x0, symName: __ZNKSt3__116reverse_iteratorIPNS_4pairINS1_IiiEES2_EEE4baseB7v160006Ev, symObjAddr: 0x48C0, symBinAddr: 0x100006104, symSize: 0x18 }
  - { offsetInCU: 0xFDC6, offset: 0xFDC6, size: 0x8, addend: 0x0, symName: __ZNKSt3__16vectorINS_4pairINS1_IiiEES2_EENS_9allocatorIS3_EEE14__annotate_newB7v160006Em, symObjAddr: 0x4914, symBinAddr: 0x100006158, symSize: 0xAC }
  - { offsetInCU: 0xFDFA, offset: 0xFDFA, size: 0x8, addend: 0x0, symName: __ZNSt3__129_AllocatorDestroyRangeReverseINS_9allocatorINS_4pairINS2_IiiEES3_EEEENS_16reverse_iteratorIPS4_EEEC1B7v160006ERS5_RS8_SB_, symObjAddr: 0x4A1C, symBinAddr: 0x100006260, symSize: 0x44 }
  - { offsetInCU: 0xFE50, offset: 0xFE50, size: 0x8, addend: 0x0, symName: __ZNSt3__116allocator_traitsINS_9allocatorINS_4pairINS2_IiiEES3_EEEEE9constructB7v160006IS4_JS4_EvEEvRS5_PT_DpOT0_, symObjAddr: 0x4AA8, symBinAddr: 0x1000062EC, symSize: 0x34 }
  - { offsetInCU: 0xFEA7, offset: 0xFEA7, size: 0x8, addend: 0x0, symName: __ZNKSt3__116reverse_iteratorIPNS_4pairINS1_IiiEES2_EEEdeB7v160006Ev, symObjAddr: 0x4B00, symBinAddr: 0x100006344, symSize: 0x28 }
  - { offsetInCU: 0xFEDA, offset: 0xFEDA, size: 0x8, addend: 0x0, symName: __ZNSt3__116reverse_iteratorIPNS_4pairINS1_IiiEES2_EEEppB7v160006Ev, symObjAddr: 0x4B28, symBinAddr: 0x10000636C, symSize: 0x20 }
  - { offsetInCU: 0xFEFF, offset: 0xFEFF, size: 0x8, addend: 0x0, symName: __ZNSt3__128__exception_guard_exceptionsINS_29_AllocatorDestroyRangeReverseINS_9allocatorINS_4pairINS3_IiiEES4_EEEENS_16reverse_iteratorIPS5_EEEEE10__completeB7v160006Ev, symObjAddr: 0x4B48, symBinAddr: 0x10000638C, symSize: 0x1C }
  - { offsetInCU: 0xFF24, offset: 0xFF24, size: 0x8, addend: 0x0, symName: __ZNSt3__128__exception_guard_exceptionsINS_29_AllocatorDestroyRangeReverseINS_9allocatorINS_4pairINS3_IiiEES4_EEEENS_16reverse_iteratorIPS5_EEEEED1B7v160006Ev, symObjAddr: 0x4B64, symBinAddr: 0x1000063A8, symSize: 0x2C }
  - { offsetInCU: 0xFF4D, offset: 0xFF4D, size: 0x8, addend: 0x0, symName: __ZNSt3__128__exception_guard_exceptionsINS_29_AllocatorDestroyRangeReverseINS_9allocatorINS_4pairINS3_IiiEES4_EEEENS_16reverse_iteratorIPS5_EEEEEC1B7v160006ESA_, symObjAddr: 0x4B90, symBinAddr: 0x1000063D4, symSize: 0x34 }
  - { offsetInCU: 0xFF85, offset: 0xFF85, size: 0x8, addend: 0x0, symName: __ZNSt3__128__exception_guard_exceptionsINS_29_AllocatorDestroyRangeReverseINS_9allocatorINS_4pairINS3_IiiEES4_EEEENS_16reverse_iteratorIPS5_EEEEEC2B7v160006ESA_, symObjAddr: 0x4BC4, symBinAddr: 0x100006408, symSize: 0x30 }
  - { offsetInCU: 0xFFBD, offset: 0xFFBD, size: 0x8, addend: 0x0, symName: __ZNSt3__129_AllocatorDestroyRangeReverseINS_9allocatorINS_4pairINS2_IiiEES3_EEEENS_16reverse_iteratorIPS4_EEEC2B7v160006ERS5_RS8_SB_, symObjAddr: 0x4BF4, symBinAddr: 0x100006438, symSize: 0x38 }
  - { offsetInCU: 0x10013, offset: 0x10013, size: 0x8, addend: 0x0, symName: __ZNSt3__19allocatorINS_4pairINS1_IiiEES2_EEE9constructB7v160006IS3_JS3_EEEvPT_DpOT0_, symObjAddr: 0x4C2C, symBinAddr: 0x100006470, symSize: 0x28 }
  - { offsetInCU: 0x1006D, offset: 0x1006D, size: 0x8, addend: 0x0, symName: __ZNSt3__119__to_address_helperINS_16reverse_iteratorIPNS_4pairINS2_IiiEES3_EEEEvE6__callB7v160006ERKS6_, symObjAddr: 0x4C54, symBinAddr: 0x100006498, symSize: 0x4C }
  - { offsetInCU: 0x10090, offset: 0x10090, size: 0x8, addend: 0x0, symName: __ZNKSt3__116reverse_iteratorIPNS_4pairINS1_IiiEES2_EEEptB7v160006Ev, symObjAddr: 0x4CA0, symBinAddr: 0x1000064E4, symSize: 0x24 }
  - { offsetInCU: 0x100B5, offset: 0x100B5, size: 0x8, addend: 0x0, symName: __ZNSt3__128__exception_guard_exceptionsINS_29_AllocatorDestroyRangeReverseINS_9allocatorINS_4pairINS3_IiiEES4_EEEENS_16reverse_iteratorIPS5_EEEEED2B7v160006Ev, symObjAddr: 0x4CC4, symBinAddr: 0x100006508, symSize: 0x48 }
  - { offsetInCU: 0x100DE, offset: 0x100DE, size: 0x8, addend: 0x0, symName: __ZNKSt3__129_AllocatorDestroyRangeReverseINS_9allocatorINS_4pairINS2_IiiEES3_EEEENS_16reverse_iteratorIPS4_EEEclB7v160006Ev, symObjAddr: 0x4D0C, symBinAddr: 0x100006550, symSize: 0xB4 }
  - { offsetInCU: 0x10104, offset: 0x10104, size: 0x8, addend: 0x0, symName: __ZNSt3__116reverse_iteratorINS0_IPNS_4pairINS1_IiiEES2_EEEEEC1B7v160006ES5_, symObjAddr: 0x4E30, symBinAddr: 0x100006674, symSize: 0x3C }
  - { offsetInCU: 0x1013B, offset: 0x1013B, size: 0x8, addend: 0x0, symName: __ZNSt3__116reverse_iteratorINS0_IPNS_4pairINS1_IiiEES2_EEEEEppB7v160006Ev, symObjAddr: 0x4EF0, symBinAddr: 0x100006734, symSize: 0x30 }
  - { offsetInCU: 0x10160, offset: 0x10160, size: 0x8, addend: 0x0, symName: __ZNKSt3__116reverse_iteratorINS0_IPNS_4pairINS1_IiiEES2_EEEEE4baseB7v160006Ev, symObjAddr: 0x4F20, symBinAddr: 0x100006764, symSize: 0x24 }
  - { offsetInCU: 0x1018A, offset: 0x1018A, size: 0x8, addend: 0x0, symName: __ZNSt3__119__to_address_helperINS_16reverse_iteratorINS1_IPNS_4pairINS2_IiiEES3_EEEEEEvE6__callB7v160006ERKS7_, symObjAddr: 0x4F44, symBinAddr: 0x100006788, symSize: 0x4C }
  - { offsetInCU: 0x101AD, offset: 0x101AD, size: 0x8, addend: 0x0, symName: __ZNKSt3__116reverse_iteratorINS0_IPNS_4pairINS1_IiiEES2_EEEEEptB7v160006Ev, symObjAddr: 0x4F90, symBinAddr: 0x1000067D4, symSize: 0x24 }
  - { offsetInCU: 0x101D2, offset: 0x101D2, size: 0x8, addend: 0x0, symName: __ZNKSt3__116reverse_iteratorINS0_IPNS_4pairINS1_IiiEES2_EEEEEdeB7v160006Ev, symObjAddr: 0x4FB4, symBinAddr: 0x1000067F8, symSize: 0x34 }
  - { offsetInCU: 0x10205, offset: 0x10205, size: 0x8, addend: 0x0, symName: __ZNSt3__116reverse_iteratorIPNS_4pairINS1_IiiEES2_EEEmmB7v160006Ev, symObjAddr: 0x4FE8, symBinAddr: 0x10000682C, symSize: 0x20 }
  - { offsetInCU: 0x1022A, offset: 0x1022A, size: 0x8, addend: 0x0, symName: __ZNSt3__116reverse_iteratorINS0_IPNS_4pairINS1_IiiEES2_EEEEEC2B7v160006ES5_, symObjAddr: 0x5008, symBinAddr: 0x10000684C, symSize: 0x2C }
  - { offsetInCU: 0x10261, offset: 0x10261, size: 0x8, addend: 0x0, symName: __ZNSt3__116reverse_iteratorIPNS_4pairINS1_IiiEES2_EEEC2B7v160006ES4_, symObjAddr: 0x5034, symBinAddr: 0x100006878, symSize: 0x28 }
  - { offsetInCU: 0x10298, offset: 0x10298, size: 0x8, addend: 0x0, symName: __ZNSt3__114__split_bufferINS_4pairINS1_IiiEES2_EERNS_9allocatorIS3_EEED2Ev, symObjAddr: 0x505C, symBinAddr: 0x1000068A0, symSize: 0x80 }
  - { offsetInCU: 0x102C3, offset: 0x102C3, size: 0x8, addend: 0x0, symName: __ZNSt3__114__split_bufferINS_4pairINS1_IiiEES2_EERNS_9allocatorIS3_EEE5clearB7v160006Ev, symObjAddr: 0x50DC, symBinAddr: 0x100006920, symSize: 0x28 }
  - { offsetInCU: 0x102E8, offset: 0x102E8, size: 0x8, addend: 0x0, symName: __ZNKSt3__114__split_bufferINS_4pairINS1_IiiEES2_EERNS_9allocatorIS3_EEE8capacityB7v160006Ev, symObjAddr: 0x5104, symBinAddr: 0x100006948, symSize: 0x40 }
  - { offsetInCU: 0x1030D, offset: 0x1030D, size: 0x8, addend: 0x0, symName: __ZNSt3__114__split_bufferINS_4pairINS1_IiiEES2_EERNS_9allocatorIS3_EEE17__destruct_at_endB7v160006EPS3_, symObjAddr: 0x5144, symBinAddr: 0x100006988, symSize: 0x2C }
  - { offsetInCU: 0x1033F, offset: 0x1033F, size: 0x8, addend: 0x0, symName: __ZNSt3__114__split_bufferINS_4pairINS1_IiiEES2_EERNS_9allocatorIS3_EEE17__destruct_at_endB7v160006EPS3_NS_17integral_constantIbLb0EEE, symObjAddr: 0x5170, symBinAddr: 0x1000069B4, symSize: 0x94 }
  - { offsetInCU: 0x1037F, offset: 0x1037F, size: 0x8, addend: 0x0, symName: __ZNKSt3__114__split_bufferINS_4pairINS1_IiiEES2_EERNS_9allocatorIS3_EEE9__end_capB7v160006Ev, symObjAddr: 0x5204, symBinAddr: 0x100006A48, symSize: 0x28 }
  - { offsetInCU: 0x103A4, offset: 0x103A4, size: 0x8, addend: 0x0, symName: __ZNKSt3__117__compressed_pairIPNS_4pairINS1_IiiEES2_EERNS_9allocatorIS3_EEE5firstB7v160006Ev, symObjAddr: 0x522C, symBinAddr: 0x100006A70, symSize: 0x24 }
  - { offsetInCU: 0x103C9, offset: 0x103C9, size: 0x8, addend: 0x0, symName: __ZNKSt3__111__wrap_iterIPNS_4pairINS1_IiiEES2_EEE4baseB7v160006Ev, symObjAddr: 0x5450, symBinAddr: 0x100006C94, symSize: 0x18 }
  - { offsetInCU: 0x103EE, offset: 0x103EE, size: 0x8, addend: 0x0, symName: __ZNKSt3__111__wrap_iterIPNS_4pairINS1_IiiEES2_EEEplB7v160006El, symObjAddr: 0x5468, symBinAddr: 0x100006CAC, symSize: 0x3C }
  - { offsetInCU: 0x1042F, offset: 0x1042F, size: 0x8, addend: 0x0, symName: __ZNKSt3__14lessINS_4pairINS1_IiiEES2_EEEclB7v160006ERKS3_S6_, symObjAddr: 0x54A4, symBinAddr: 0x100006CE8, symSize: 0x34 }
  - { offsetInCU: 0x10472, offset: 0x10472, size: 0x8, addend: 0x0, symName: __ZNKSt3__111__wrap_iterIPNS_4pairINS1_IiiEES2_EEEdeB7v160006Ev, symObjAddr: 0x54D8, symBinAddr: 0x100006D1C, symSize: 0x18 }
  - { offsetInCU: 0x10497, offset: 0x10497, size: 0x8, addend: 0x0, symName: __ZNSt3__111__wrap_iterIPNS_4pairINS1_IiiEES2_EEEmmB7v160006Ev, symObjAddr: 0x54F0, symBinAddr: 0x100006D34, symSize: 0x20 }
  - { offsetInCU: 0x104BC, offset: 0x104BC, size: 0x8, addend: 0x0, symName: __ZNSt3__18_IterOpsINS_17_ClassicAlgPolicyEE11__iter_moveB7v160006IRNS_11__wrap_iterIPNS_4pairINS5_IiiEES6_EEEEEENS_9enable_ifIXsr12is_referenceIDTdeclsr3stdE7declvalIRT_EEEEE5valueEDTclsr3stdE4movedeclsr3stdE7declvalISD_EEEEE4typeEOSC_, symObjAddr: 0x5510, symBinAddr: 0x100006D54, symSize: 0x28 }
  - { offsetInCU: 0x104E8, offset: 0x104E8, size: 0x8, addend: 0x0, symName: __ZNSt3__14pairINS0_IiiEES1_EaSB7v160006ERKS2_, symObjAddr: 0x5538, symBinAddr: 0x100006D7C, symSize: 0x48 }
  - { offsetInCU: 0x1051B, offset: 0x1051B, size: 0x8, addend: 0x0, symName: __ZNSt3__111__wrap_iterIPNS_4pairINS1_IiiEES2_EEEpLB7v160006El, symObjAddr: 0x5580, symBinAddr: 0x100006DC4, symSize: 0x28 }
  - { offsetInCU: 0x1054E, offset: 0x1054E, size: 0x8, addend: 0x0, symName: __ZNSt3__18_IterOpsINS_17_ClassicAlgPolicyEE25__validate_iter_referenceB7v160006IRNS_11__wrap_iterIPNS_4pairINS5_IiiEES6_EEEEEEvv, symObjAddr: 0x56C8, symBinAddr: 0x100006F0C, symSize: 0x4 }
  - { offsetInCU: 0x1056C, offset: 0x1056C, size: 0x8, addend: 0x0, symName: __ZNSt3__14pairIiiEaSB7v160006ERKS1_, symObjAddr: 0x56CC, symBinAddr: 0x100006F10, symSize: 0x30 }
  - { offsetInCU: 0x1059F, offset: 0x1059F, size: 0x8, addend: 0x0, symName: __ZNSt3__16vectorINS_4pairINS1_IiiEES2_EENS_9allocatorIS3_EEE11__make_iterB7v160006EPS3_, symObjAddr: 0x56FC, symBinAddr: 0x100006F40, symSize: 0x34 }
  - { offsetInCU: 0x105D3, offset: 0x105D3, size: 0x8, addend: 0x0, symName: __ZNSt3__111__wrap_iterIPNS_4pairINS1_IiiEES2_EEEC1B7v160006EPKvS4_, symObjAddr: 0x5730, symBinAddr: 0x100006F74, symSize: 0x3C }
  - { offsetInCU: 0x10618, offset: 0x10618, size: 0x8, addend: 0x0, symName: __ZNSt3__111__wrap_iterIPNS_4pairINS1_IiiEES2_EEEC2B7v160006EPKvS4_, symObjAddr: 0x576C, symBinAddr: 0x100006FB0, symSize: 0x24 }
  - { offsetInCU: 0x1065D, offset: 0x1065D, size: 0x8, addend: 0x0, symName: __ZNSt3__14pairIiiEC1B7v160006ERKiS3_, symObjAddr: 0x5790, symBinAddr: 0x100006FD4, symSize: 0x3C }
  - { offsetInCU: 0x106A2, offset: 0x106A2, size: 0x8, addend: 0x0, symName: __ZNSt3__14pairIiiEC2B7v160006ERKiS3_, symObjAddr: 0x57CC, symBinAddr: 0x100007010, symSize: 0x34 }
  - { offsetInCU: 0x106E7, offset: 0x106E7, size: 0x8, addend: 0x0, symName: __ZNSt3__14pairINS0_IiiEES1_EC1B7v160006ERKS1_S4_, symObjAddr: 0x5800, symBinAddr: 0x100007044, symSize: 0x3C }
  - { offsetInCU: 0x1072C, offset: 0x1072C, size: 0x8, addend: 0x0, symName: __ZNSt3__14pairINS0_IiiEES1_EC2B7v160006ERKS1_S4_, symObjAddr: 0x583C, symBinAddr: 0x100007080, symSize: 0x34 }
  - { offsetInCU: 0x10771, offset: 0x10771, size: 0x8, addend: 0x0, symName: __ZNKSt3__16vectorINS_4pairINS1_IiiEES2_EENS_9allocatorIS3_EEE5emptyB7v160006Ev, symObjAddr: 0x5870, symBinAddr: 0x1000070B4, symSize: 0x28 }
  - { offsetInCU: 0x10796, offset: 0x10796, size: 0x8, addend: 0x0, symName: __ZNKSt3__16vectorINS_4pairINS1_IiiEES2_EENS_9allocatorIS3_EEE5frontB7v160006Ev, symObjAddr: 0x5898, symBinAddr: 0x1000070DC, symSize: 0x18 }
  - { offsetInCU: 0x107BA, offset: 0x107BA, size: 0x8, addend: 0x0, symName: __ZNSt3__16vectorINS_4pairINS1_IiiEES2_EENS_9allocatorIS3_EEE8pop_backEv, symObjAddr: 0x5908, symBinAddr: 0x10000714C, symSize: 0x2C }
  - { offsetInCU: 0x107E1, offset: 0x107E1, size: 0x8, addend: 0x0, symName: __ZNSt3__111__wrap_iterIPNS_4pairINS1_IiiEES2_EEEppB7v160006Ev, symObjAddr: 0x5BEC, symBinAddr: 0x100007430, symSize: 0x20 }
  - { offsetInCU: 0x10806, offset: 0x10806, size: 0x8, addend: 0x0, symName: __ZNSt3__16vectorINS_4pairINS1_IiiEES2_EENS_9allocatorIS3_EEE17__destruct_at_endB7v160006EPS3_, symObjAddr: 0x5C0C, symBinAddr: 0x100007450, symSize: 0x88 }
  - { offsetInCU: 0x10849, offset: 0x10849, size: 0x8, addend: 0x0, symName: __ZNSt3__16vectorINS_4pairINS1_IiiEES2_EENS_9allocatorIS3_EEE27__invalidate_iterators_pastB7v160006EPS3_, symObjAddr: 0x5C94, symBinAddr: 0x1000074D8, symSize: 0x14 }
  - { offsetInCU: 0x1087F, offset: 0x1087F, size: 0x8, addend: 0x0, symName: __ZNKSt3__16vectorINS_4pairINS1_IiiEES2_EENS_9allocatorIS3_EEE17__annotate_shrinkB7v160006Em, symObjAddr: 0x5CA8, symBinAddr: 0x1000074EC, symSize: 0xB4 }
  - { offsetInCU: 0x108B2, offset: 0x108B2, size: 0x8, addend: 0x0, symName: __ZNKSt3__19basic_iosIcNS_11char_traitsIcEEE5widenB7v160006Ec, symObjAddr: 0x5D5C, symBinAddr: 0x1000075A0, symSize: 0x8C }
  - { offsetInCU: 0x1091F, offset: 0x1091F, size: 0x8, addend: 0x0, symName: __ZNKSt3__15ctypeIcE5widenB7v160006Ec, symObjAddr: 0x5E14, symBinAddr: 0x100007658, symSize: 0x38 }
...
